LX51 LINKER/LOCATER V4.66.30.0                                                          04/09/2024  13:54:58  PAGE 1


LX51 LINKER/LOCATER V4.66.30.0, INVOKED BY:
D:\KEIL_V5\C51\BIN\LX51.EXE .\Objects\AddFunction.obj, .\Objects\turboFanFunction.obj, .\Objects\HPFCOL_Function.obj, .\
>> Objects\Interrupt.obj, .\Objects\main.obj, .\Objects\HPFCOL_Data.obj, .\Objects\MotorControl.obj, .\Objects\MotorCont
>> rolFunction.obj, .\Objects\ACLostFunc.obj, .\Objects\MotorTailWind.obj, .\Objects\MotorProtect.obj, .\Objects\PWM_Spe
>> edControl.obj, .\Objects\SignalOutputControl.obj, .\Objects\ADC.obj, .\Objects\AMP.obj, .\Objects\CMP.obj, .\Objects\
>> CRC.obj, .\Objects\DMA.obj, .\Objects\DRIVER.obj, .\Objects\FLASH.obj, .\Objects\GPIO.obj, .\Objects\I2C.obj, .\Objec
>> ts\SPI.obj, .\Objects\TIMER.obj, .\Objects\UART.obj, .\Objects\PID.obj, .\Objects\STARTUP_FU6804.obj TO .\Objects\AVC
>> _ProjectV1_0_7 PRINT (.\Listings\AVC_ProjectV1_0_7.map) REMOVEUNUSED CLASSES (XDATA (X:0X0-X:0X2A5), HDATA (X:0X0-X:0
>> X2A5), CODE (C:0X0-C:0X3CFF), CONST (C:0X0-C:0X3CFF), ECODE (C:0X0-C:0X3CFF), HCONST (C:0X0-C:0X3CFF)) SEGMENTS (?CO?
>> HPFCOL_DATA (C:0X3C00))


CPU MODE:     8051 MODE
MEMORY MODEL: LARGE WITH FLOATING POINT ARITHMETIC


INPUT MODULES INCLUDED:
  .\Objects\AddFunction.obj (ADDFUNCTION)
         COMMENT TYPE 0: C51 V9.53.0.0
  .\Objects\turboFanFunction.obj (TURBOFANFUNCTION)
         COMMENT TYPE 0: C51 V9.53.0.0
  .\Objects\HPFCOL_Function.obj (HPFCOL_FUNCTION)
         COMMENT TYPE 0: C51 V9.53.0.0
  .\Objects\Interrupt.obj (INTERRUPT)
         COMMENT TYPE 0: C51 V9.53.0.0
  .\Objects\main.obj (MAIN)
         COMMENT TYPE 0: C51 V9.53.0.0
  .\Objects\HPFCOL_Data.obj (HPFCOL_DATA)
         COMMENT TYPE 0: C51 V9.53.0.0
  .\Objects\MotorControl.obj (MOTORCONTROL)
         COMMENT TYPE 0: C51 V9.53.0.0
  .\Objects\MotorControlFunction.obj (MOTORCONTROLFUNCTION)
         COMMENT TYPE 0: C51 V9.53.0.0
  .\Objects\ACLostFunc.obj (ACLOSTFUNC)
         COMMENT TYPE 0: C51 V9.53.0.0
  .\Objects\MotorTailWind.obj (MOTORTAILWIND)
         COMMENT TYPE 0: C51 V9.53.0.0
  .\Objects\MotorProtect.obj (MOTORPROTECT)
         COMMENT TYPE 0: C51 V9.53.0.0
  .\Objects\PWM_SpeedControl.obj (PWM_SPEEDCONTROL)
         COMMENT TYPE 0: C51 V9.53.0.0
  .\Objects\SignalOutputControl.obj (SIGNALOUTPUTCONTROL)
         COMMENT TYPE 0: C51 V9.53.0.0
  .\Objects\ADC.obj (ADC)
         COMMENT TYPE 0: C51 V9.53.0.0
  .\Objects\AMP.obj (AMP)
         COMMENT TYPE 0: C51 V9.53.0.0
  .\Objects\CMP.obj (CMP)
         COMMENT TYPE 0: C51 V9.53.0.0
  .\Objects\CRC.obj (CRC)
         COMMENT TYPE 0: C51 V9.53.0.0
  .\Objects\DMA.obj (DMA)
         COMMENT TYPE 0: C51 V9.53.0.0
  .\Objects\DRIVER.obj (DRIVER)
         COMMENT TYPE 0: C51 V9.53.0.0
  .\Objects\FLASH.obj (FLASH)
         COMMENT TYPE 0: C51 V9.53.0.0
  .\Objects\GPIO.obj (GPIO)
         COMMENT TYPE 0: C51 V9.53.0.0
  .\Objects\I2C.obj (I2C)
         COMMENT TYPE 0: C51 V9.53.0.0
  .\Objects\SPI.obj (SPI)
         COMMENT TYPE 0: C51 V9.53.0.0
  .\Objects\TIMER.obj (TIMER)
         COMMENT TYPE 0: C51 V9.53.0.0
  .\Objects\UART.obj (UART)
LX51 LINKER/LOCATER V4.66.30.0                                                        04/09/2024  13:54:58  PAGE 2


         COMMENT TYPE 0: C51 V9.53.0.0
  .\Objects\PID.obj (PID)
         COMMENT TYPE 0: C51 V9.53.0.0
  .\Objects\STARTUP_FU6804.obj (?C_STARTUP)
         COMMENT TYPE 1: A51 / ASM51 Assembler
  D:\KEIL_V5\C51\LIB\C51FPL.LIB (?C?FPADD)
         COMMENT TYPE 1: A51 / ASM51 Assembler
  D:\KEIL_V5\C51\LIB\C51FPL.LIB (?C?FPMUL)
         COMMENT TYPE 1: A51 / ASM51 Assembler
  D:\KEIL_V5\C51\LIB\C51FPL.LIB (?C?FPDIV)
         COMMENT TYPE 1: A51 / ASM51 Assembler
  D:\KEIL_V5\C51\LIB\C51FPL.LIB (?C?FPCMP)
         COMMENT TYPE 1: A51 / ASM51 Assembler
  D:\KEIL_V5\C51\LIB\C51FPL.LIB (?C?FCAST)
         COMMENT TYPE 1: A51 / ASM51 Assembler
  D:\KEIL_V5\C51\LIB\C51FPL.LIB (?C?CASTF)
         COMMENT TYPE 1: A51 / ASM51 Assembler
  D:\KEIL_V5\C51\LIB\C51FPL.LIB (?C?FPGETOPN)
         COMMENT TYPE 1: A51 / ASM51 Assembler
  D:\KEIL_V5\C51\LIB\C51L.LIB (?C_INIT)
         COMMENT TYPE 1: A51 / ASM51 Assembler
  D:\KEIL_V5\C51\LIB\C51L.LIB (?C?CLDPTR)
         COMMENT TYPE 1: A51 / ASM51 Assembler
  D:\KEIL_V5\C51\LIB\C51L.LIB (?C?CLDOPTR)
         COMMENT TYPE 1: A51 / ASM51 Assembler
  D:\KEIL_V5\C51\LIB\C51L.LIB (?C?CILDPTR)
         COMMENT TYPE 1: A51 / ASM51 Assembler
  D:\KEIL_V5\C51\LIB\C51L.LIB (?C?CSTPTR)
         COMMENT TYPE 1: A51 / ASM51 Assembler
  D:\KEIL_V5\C51\LIB\C51L.LIB (?C?IILDX)
         COMMENT TYPE 1: A51 / ASM51 Assembler
  D:\KEIL_V5\C51\LIB\C51L.LIB (?C?ILDPTR)
         COMMENT TYPE 1: A51 / ASM51 Assembler
  D:\KEIL_V5\C51\LIB\C51L.LIB (?C?ILDOPTR)
         COMMENT TYPE 1: A51 / ASM51 Assembler
  D:\KEIL_V5\C51\LIB\C51L.LIB (?C?IILDOPTR)
         COMMENT TYPE 1: A51 / ASM51 Assembler
  D:\KEIL_V5\C51\LIB\C51L.LIB (?C?ISTPTR)
         COMMENT TYPE 1: A51 / ASM51 Assembler
  D:\KEIL_V5\C51\LIB\C51L.LIB (?C?ISTOPTR)
         COMMENT TYPE 1: A51 / ASM51 Assembler
  D:\KEIL_V5\C51\LIB\C51L.LIB (?C?LNEG)
         COMMENT TYPE 1: A51 / ASM51 Assembler
  D:\KEIL_V5\C51\LIB\C51L.LIB (?C?ULCMP)
         COMMENT TYPE 1: A51 / ASM51 Assembler
  D:\KEIL_V5\C51\LIB\C51L.LIB (?C?ULSHR)
         COMMENT TYPE 1: A51 / ASM51 Assembler
  D:\KEIL_V5\C51\LIB\C51L.LIB (?C?SLSHR)
         COMMENT TYPE 1: A51 / ASM51 Assembler
  D:\KEIL_V5\C51\LIB\C51L.LIB (?C?LSTXDATA)
         COMMENT TYPE 1: A51 / ASM51 Assembler
  D:\KEIL_V5\C51\LIB\C51L.LIB (?C?LSTKXDATA)
         COMMENT TYPE 1: A51 / ASM51 Assembler
  D:\KEIL_V5\C51\LIB\C51L.LIB (?C?LIMUL)
         COMMENT TYPE 1: A51 / ASM51 Assembler
  D:\KEIL_V5\C51\LIB\C51L.LIB (ABS)
         COMMENT TYPE 1: A51 / ASM51 Assembler
  D:\KEIL_V5\C51\LIB\C51L.LIB (STRLEN)
         COMMENT TYPE 1: A51 / ASM51 Assembler
  D:\KEIL_V5\C51\LIB\C51L.LIB (?C?MEMSET)
         COMMENT TYPE 1: A51 / ASM51 Assembler


ACTIVE MEMORY CLASSES OF MODULE:  .\Objects\AVC_ProjectV1_0_7 (ADDFUNCTION)

LX51 LINKER/LOCATER V4.66.30.0                                                        04/09/2024  13:54:58  PAGE 3


BASE        START       END         USED      MEMORY CLASS
==========================================================
X:000000H   X:000000H   X:0002A5H   000225H   XDATA
X:000000H   X:000000H   X:0002A5H             HDATA
C:000000H   C:000000H   C:003CFFH   0030A5H   CODE
C:000000H   C:000000H   C:003CFFH             CONST
C:000000H   C:000000H   C:003CFFH             ECODE
B00:0000H   C:000000H   C:003CFFH             HCONST
I:000000H   I:000000H   I:0000FFH   00004EH   IDATA
I:000000H   I:000000H   I:00007FH   000009H   DATA


MEMORY MAP OF MODULE:  .\Objects\AVC_ProjectV1_0_7 (ADDFUNCTION)


START     STOP      LENGTH    ALIGN  RELOC    MEMORY CLASS   SEGMENT NAME
=========================================================================

* * * * * * * * * * *   D A T A   M E M O R Y   * * * * * * * * * * * * *
000000H   000007H   000008H   ---    AT..     DATA           "REG BANK 0"
000008H   000008H   000001H   BYTE   UNIT     DATA           ?DT?MAIN
000009H   000035H   00002DH   BYTE   UNIT     IDATA          ?ID?ADDFUNCTION
000036H   000055H   000020H   BYTE   UNIT     IDATA          ?ID?MOTORPROTECT
000056H   000056H   000001H   BYTE   UNIT     IDATA          ?STACK

* * * * * * * * * * *   C O D E   M E M O R Y   * * * * * * * * * * * * *
000000H   000002H   000003H   ---    OFFS..   CODE           ?CO??C_STARTUP?0
000003H   000005H   000003H   BYTE   OFFS..   CODE           ?INTERRUPT?00003
000006H   000012H   00000DH   BYTE   UNIT     CODE           ?PR?GPIO_INIT?GPIO
000013H   000015H   000003H   BYTE   OFFS..   CODE           ?INTERRUPT?00013
000016H   000016H   000001H   BYTE   UNIT     CODE           ?PR?EXTERN_INT?INTERRUPT
000017H   00001AH   000004H   ---    ---      **GAP**
00001BH   00001DH   000003H   BYTE   OFFS..   CODE           ?INTERRUPT?0001B
00001EH   000022H   000005H   ---    ---      **GAP**
000023H   000025H   000003H   BYTE   OFFS..   CODE           ?INTERRUPT?00023
000026H   00003AH   000015H   BYTE   UNIT     CODE           ?PR?SOFTWAREINIT?MAIN
00003BH   00003DH   000003H   BYTE   OFFS..   CODE           ?INTERRUPT?0003B
00003EH   000049H   00000CH   BYTE   UNIT     CODE           ?PR?_ABS?ABS
00004AH   00004AH   000001H   ---    ---      **GAP**
00004BH   00004DH   000003H   BYTE   OFFS..   CODE           ?INTERRUPT?0004B
00004EH   000052H   000005H   ---    ---      **GAP**
000053H   000055H   000003H   BYTE   OFFS..   CODE           ?INTERRUPT?00053
000056H   00005AH   000005H   ---    ---      **GAP**
00005BH   00005DH   000003H   BYTE   OFFS..   CODE           ?INTERRUPT?0005B
00005EH   000062H   000005H   ---    ---      **GAP**
000063H   000065H   000003H   BYTE   OFFS..   CODE           ?INTERRUPT?00063
000066H   0006A3H   00063EH   BYTE   UNIT     CODE           ?C?LIB_CODE
0006A4H   000A15H   000372H   BYTE   UNIT     CODE           ?PR?_MC_RAMP?ADDFUNCTION
000A16H   000D3EH   000329H   BYTE   UNIT     CODE           ?PR?SPEED_RESPONSE?ADDFUNCTION
000D3FH   001060H   000322H   BYTE   UNIT     CODE           ?PR?SYSTICK_INT?INTERRUPT
001061H   001224H   0001C4H   BYTE   UNIT     CODE           ?PR?BEMFDEALWITH?MOTORTAILWIND
001225H   0013C5H   0001A1H   BYTE   UNIT     CODE           ?PR?FAULT_STALL?MOTORPROTECT
0013C6H   001558H   000193H   BYTE   UNIT     CODE           ?C_INITSEG
001559H   0016C1H   000169H   BYTE   UNIT     CODE           ?PR?MC_CONTROL?MOTORCONTROL
0016C2H   001829H   000168H   BYTE   UNIT     CODE           ?PR?FAULT_DETECTION?MOTORPROTECT
00182AH   001986H   00015DH   BYTE   UNIT     CODE           ?PR?FAULT_PHASELOSS?MOTORPROTECT
001987H   001ADAH   000154H   BYTE   UNIT     CODE           ?PR?FOC_INIT?MOTORCONTROLFUNCTION
001ADBH   001C2CH   000152H   BYTE   UNIT     CODE           ?PR?SIGNALOUTPUT_PROCESS?SIGNALOUTPUTCONTROL
001C2DH   001D77H   00014BH   BYTE   UNIT     CODE           ?PR?MOTOR_ALIGN?MOTORCONTROLFUNCTION
001D78H   001EA9H   000132H   BYTE   UNIT     CODE           ?PR?DRV_SECTIONCHEAK?MOTORTAILWIND
001EAAH   001FC1H   000118H   BYTE   UNIT     CODE           ?PR?BEMFFOCCLOSELOOPSTART?MOTORTAILWIND
001FC2H   0020C8H   000107H   BYTE   UNIT     CODE           ?PR?TAILWINDSPEEDDETECT?MOTORTAILWIND
0020C9H   0021CBH   000103H   BYTE   UNIT     CODE           ?PR?BEMFSPEEDDETECT?MOTORTAILWIND
0021CCH   0022A3H   0000D8H   BYTE   UNIT     CODE           ?PR?_FAULT_SOFTOVERCURRENT?MOTORPROTECT
0022A4H   002360H   0000BDH   BYTE   UNIT     CODE           ?PR?MOTOR_OPEN?MOTORCONTROLFUNCTION
LX51 LINKER/LOCATER V4.66.30.0                                                        04/09/2024  13:54:58  PAGE 4


002361H   00241CH   0000BCH   BYTE   UNIT     CODE           ?PR?GETCURRENTOFFSET?MOTORCONTROLFUNCTION
00241DH   0024CCH   0000B0H   BYTE   UNIT     CODE           ?PR?VSP_SPEEDCONTROL?PWM_SPEEDCONTROL
0024CDH   002566H   00009AH   BYTE   UNIT     CODE           ?C_C51STARTUP
002567H   0025FEH   000098H   BYTE   UNIT     CODE           ?PR?MOTORCONTROLINIT?MOTORCONTROLFUNCTION
0025FFH   002687H   000089H   BYTE   UNIT     CODE           ?PR?_DELL_COSTMODE_SLOWWOLK?ACLOSTFUNC
002688H   00270FH   000088H   BYTE   UNIT     CODE           ?PR?STARRAMPDEALWITH?ADDFUNCTION
002710H   002796H   000087H   BYTE   UNIT     CODE           ?PR?VSPSHUTDOWN_FUNCTION?PWM_SPEEDCONTROL
002797H   002818H   000082H   BYTE   UNIT     CODE           ?PR?FAULT_OVERUNDERVOLTAGE?MOTORPROTECT
002819H   002887H   00006FH   BYTE   UNIT     CODE           ?PR?SLOWDOWN_RESPONSE_FUNCTION?ADDFUNCTION
002888H   0028F3H   00006CH   BYTE   UNIT     CODE           ?PR?DRIVER_INIT?DRIVER
0028F4H   00295AH   000067H   BYTE   UNIT     CODE           ?PR?TIM4_INITIAL?TIMER
00295BH   0029C0H   000066H   BYTE   UNIT     CODE           ?PR?ADC_INIT?ADC
0029C1H   002A25H   000065H   BYTE   UNIT     CODE           ?PR?DRV_ISR?INTERRUPT
002A26H   002A85H   000060H   BYTE   UNIT     CODE           ?PR?DELL_COASTMODE_IF_EVENT?ACLOSTFUNC
002A86H   002AE0H   00005BH   BYTE   UNIT     CODE           ?PR?CMP3_INIT?CMP
002AE1H   002B36H   000056H   BYTE   UNIT     CODE           ?PR?MOTOR_READY?MOTORCONTROLFUNCTION
002B37H   002B8BH   000055H   BYTE   UNIT     CODE           ?PR?BEMFSPEEDCAL?MOTORTAILWIND
002B8CH   002BDEH   000053H   BYTE   UNIT     CODE           ?PR?TIM3_INT?INTERRUPT
002BDFH   002C2BH   00004DH   BYTE   UNIT     CODE           ?PR?CMP_ISR?INTERRUPT
002C2CH   002C76H   00004BH   BYTE   UNIT     CODE           ?PR?TIM4_INT?INTERRUPT
002C77H   002CBFH   000049H   BYTE   UNIT     CODE           ?PR?PI_INIT?PID
002CC0H   002D07H   000048H   BYTE   UNIT     CODE           ?PR?CMP_BMEF_INIT?MOTORTAILWIND
002D08H   002D4EH   000047H   BYTE   UNIT     CODE           ?PR?HARDWAREINIT?MAIN
002D4FH   002D91H   000043H   BYTE   UNIT     CODE           ?PR?MAIN?MAIN
002D92H   002DCFH   00003EH   BYTE   UNIT     CODE           ?PR?BEMFDETECTINIT?MOTORTAILWIND
002DD0H   002E0CH   00003DH   BYTE   UNIT     CODE           ?PR?BEMFDETECTFUNC?MOTORTAILWIND
002E0DH   002E3EH   000032H   BYTE   UNIT     CODE           ?PR?VARIABLESPREINIT?MOTORCONTROLFUNCTION
002E3FH   002E6FH   000031H   BYTE   UNIT     CODE           ?PR?MOTOR_TAILWIND?MOTORCONTROLFUNCTION
002E70H   002EA0H   000031H   BYTE   UNIT     CODE           ?PR?DELL_COASTMODE_PROCESS?ACLOSTFUNC
002EA1H   002ECEH   00002EH   BYTE   UNIT     CODE           ?PR?TIME2_BMEF_INIT?MOTORTAILWIND
002ECFH   002EFAH   00002CH   BYTE   UNIT     CODE           ?PR?SIGNALOUTPUT_COUNTER?SIGNALOUTPUTCONTROL
002EFBH   002F25H   00002BH   BYTE   UNIT     CODE           ?PR?FG_UPDATE_EVENT?SIGNALOUTPUTCONTROL
002F26H   002F4EH   000029H   BYTE   UNIT     CODE           ?PR?TAILWINDVARIBLE_INITIAL?MOTORTAILWIND
002F4FH   002F77H   000029H   BYTE   UNIT     CODE           ?PR?AMP_INIT?AMP
002F78H   002F9BH   000024H   BYTE   UNIT     CODE           ?PR?MOTOR_INIT?MOTORCONTROLFUNCTION
002F9CH   002FBDH   000022H   BYTE   UNIT     CODE           ?PR?CMP3_INT?INTERRUPT
002FBEH   002FDEH   000021H   BYTE   UNIT     CODE           ?PR?FAULTPROCESS?MOTORPROTECT
002FDFH   002FFCH   00001EH   BYTE   UNIT     CODE           ?PR?FAULTVARIBLE_INITIAL?MOTORPROTECT
002FFDH   003019H   00001DH   BYTE   UNIT     CODE           ?PR?TIM2_INT?INTERRUPT
00301AH   003034H   00001BH   BYTE   UNIT     CODE           ?PR?SYSTICK_INITIAL?TIMER
003035H   00304DH   000019H   BYTE   UNIT     CODE           ?PR?_HW_ONE_PI?ADDFUNCTION
00304EH   003066H   000019H   BYTE   UNIT     CODE           ?PR?GETBEMFSTATUS?MOTORTAILWIND
003067H   00307AH   000014H   BYTE   UNIT     CODE           ?PR?DELL_COASTMODE_INITIAL?ACLOSTFUNC
00307BH   00308AH   000010H   BYTE   UNIT     CODE           ?PR?DELL_COASTMODE_STATE?ACLOSTFUNC
00308BH   00309AH   000010H   BYTE   UNIT     CODE           ?PR?SIGNALOUTPUT_INITIAL?SIGNALOUTPUTCONTROL
00309BH   0030A8H   00000EH   BYTE   UNIT     CODE           ?PR?CMP3_INTERRUPT_INIT?CMP
0030A9H   0030B1H   000009H   BYTE   UNIT     CODE           ?PR?_FG_SETFAKESPPED?SIGNALOUTPUTCONTROL
0030B2H   0030B7H   000006H   BYTE   UNIT     CODE           ?PR?LVW_TSD_INT?INTERRUPT
0030B8H   0030BDH   000006H   BYTE   UNIT     CODE           ?PR?DELL_COASTMODE_SLOWWOLKSTATE?ACLOSTFUNC

* * * * * * * * * * *  X D A T A   M E M O R Y  * * * * * * * * * * * * *
000000H   00009CH   00009DH   BYTE   UNIT     XDATA          ?XD?ADDFUNCTION
00009DH   00010DH   000071H   BYTE   UNIT     XDATA          ?XD?MOTORTAILWIND
00010EH   00014DH   000040H   BYTE   UNIT     XDATA          ?XD?HPFCOL_DATA
00014EH   00018BH   00003EH   BYTE   UNIT     XDATA          ?XD?PWM_SPEEDCONTROL
00018CH   0001ABH   000020H   BYTE   UNIT     XDATA          ?XD?MOTORCONTROLFUNCTION
0001ACH   0001C3H   000018H   BYTE   UNIT     XDATA          ?XD?UART
0001C4H   0001DAH   000017H   BYTE   UNIT     XDATA          ?XD?INTERRUPT
0001DBH   0001ECH   000012H   BYTE   UNIT     XDATA          ?XD?TURBOFANFUNCTION
0001EDH   0001FEH   000012H   BYTE   UNIT     XDATA          ?XD?HPFCOL_FUNCTION
0001FFH   000206H   000008H   BYTE   UNIT     XDATA          ?XD?ACLOSTFUNC
000207H   00020EH   000008H   BYTE   UNIT     XDATA          ?XD?MOTORPROTECT
00020FH   000216H   000008H   BYTE   UNIT     XDATA          ?XD?SIGNALOUTPUTCONTROL
000217H   00021CH   000006H   BYTE   UNIT     XDATA          _XDATA_GROUP_
00021DH   000220H   000004H   BYTE   UNIT     XDATA          ?XD?MOTORCONTROL
LX51 LINKER/LOCATER V4.66.30.0                                                        04/09/2024  13:54:58  PAGE 5


000221H   000222H   000002H   BYTE   UNIT     XDATA          ?XD?MAIN
000223H   000224H   000002H   BYTE   UNIT     XDATA          ?XD?CMP

* * * * * * * * *   R E M O V E D     S E G M E N T S   * * * * * * * *
   *DEL*:           000040H   BYTE   UNIT     CONST          ?CO?HPFCOL_DATA
   *DEL*:           00002EH   BYTE   UNIT     CODE           ?PR?_ABS_F32?ADDFUNCTION
   *DEL*:           000004H   BYTE   UNIT     XDATA          ?XD?_ABS_F32?ADDFUNCTION
   *DEL*:           000001H   BYTE   UNIT     CODE           ?PR?APP_DIV?ADDFUNCTION
   *DEL*:           000061H   BYTE   UNIT     CODE           ?PR?RUNSVPWM5_FUNCTION?ADDFUNCTION
   *DEL*:           0000AAH   BYTE   UNIT     CODE           ?PR?FOC_TSMIN_CLOSE_FUNCTION?ADDFUNCTION
   *DEL*:           0000B7H   BYTE   UNIT     CODE           ?PR?CURRENTLIMITER_PROCESS?ADDFUNCTION
   *DEL*:           00015DH   BYTE   UNIT     CODE           ?PR?WATT_LIMIT_FUNCTION?ADDFUNCTION
   *DEL*:           000039H   BYTE   UNIT     CODE           ?PR?TURBOFAN_INITIAL?TURBOFANFUNCTION
   *DEL*:           000037H   BYTE   UNIT     CODE           ?PR?TURBOFAN_COUNTEVENT?TURBOFANFUNCTION
   *DEL*:           0001BFH   BYTE   UNIT     CODE           ?PR?TURBOFAN_PROCESSEVENT?TURBOFANFUNCTION
   *DEL*:           000011H   BYTE   UNIT     CODE           ?PR?HPFCOL_INITIAL?HPFCOL_FUNCTION
   *DEL*:           000055H   BYTE   UNIT     CODE           ?PR?TIM4_HPFCOL_INITIAL?HPFCOL_FUNCTION
   *DEL*:           0000A3H   BYTE   UNIT     CODE           ?PR?HPFCOL_COMMDETECTION?HPFCOL_FUNCTION
   *DEL*:           00011AH   BYTE   UNIT     CODE           ?PR?HPFCOLCOUNTER_EVENT?HPFCOL_FUNCTION
   *DEL*:           000102H   BYTE   UNIT     CODE           ?PR?HPFCOLUPDATE_EVENT?HPFCOL_FUNCTION
   *DEL*:           000015H   BYTE   UNIT     CODE           ?PR?_HPFCOL_SPEEDCONTROL?HPFCOL_FUNCTION
   *DEL*:           000017H   BYTE   UNIT     CODE           ?PR?MOTOR_CHARGE?MOTORCONTROLFUNCTION
   *DEL*:           000010H   BYTE   UNIT     CODE           ?PR?MC_STOP?MOTORCONTROLFUNCTION
   *DEL*:           000058H   BYTE   UNIT     CODE           ?PR?_DELL_COASTMODE_IC_EVENT?ACLOSTFUNC
   *DEL*:           00006BH   BYTE   UNIT     CODE           ?PR?TAILWINDDETECTINIT?MOTORTAILWIND
   *DEL*:           00007CH   BYTE   UNIT     CODE           ?PR?SMO_TAILWINDDEALWITH?MOTORTAILWIND
   *DEL*:           00001FH   BYTE   UNIT     CODE           ?PR?PWM_CAPTURE?PWM_SPEEDCONTROL
   *DEL*:           000026H   BYTE   UNIT     CODE           ?PR?PWM_OVERFLOWDETECTION?PWM_SPEEDCONTROL
   *DEL*:           0002AEH   BYTE   UNIT     CODE           ?PR?PWM_SPEEDCONTROL?PWM_SPEEDCONTROL
   *DEL*:           000004H   BYTE   UNIT     XDATA          ?XD?PWM_SPEEDCONTROL?PWM_SPEEDCONTROL
   *DEL*:           000010H   BYTE   UNIT     CODE           ?PR?SIGNALOUTPUT_PAUSE?SIGNALOUTPUTCONTROL
   *DEL*:           000011H   BYTE   UNIT     CODE           ?PR?SIGNALOUTPUT_CONTINUE?SIGNALOUTPUTCONTROL
   *DEL*:           000055H   BYTE   UNIT     CODE           ?PR?CMP0_INIT?CMP
   *DEL*:           000033H   BYTE   UNIT     CODE           ?PR?_SW_CRC8_CALC?CRC
   *DEL*:           000003H   BYTE   UNIT     XDATA          ?XD?_SW_CRC8_CALC?CRC
   *DEL*:           000100H   BYTE   UNIT     CONST          ?CO?CRC
   *DEL*:           000028H   BYTE   UNIT     CODE           ?PR?_SETPIPE_DMA0?DMA
   *DEL*:           000028H   BYTE   UNIT     CODE           ?PR?_SETPIPE_DMA1?DMA
   *DEL*:           000030H   BYTE   UNIT     CODE           ?PR?_SETDATAPACKAGE_DMA0?DMA
   *DEL*:           000030H   BYTE   UNIT     CODE           ?PR?_SETDATAPACKAGE_DMA1?DMA
   *DEL*:           000049H   BYTE   UNIT     CODE           ?PR?_SETENDIAN_DMA?DMA
   *DEL*:           000029H   BYTE   UNIT     CODE           ?PR?_SETIRQ_DMA?DMA
   *DEL*:           000034H   BYTE   UNIT     CODE           ?PR?SETDBGMOD_DMA?DMA
   *DEL*:           000030H   BYTE   UNIT     CODE           ?PR?_SET_DBG_DMA?DMA
   *DEL*:           000032H   BYTE   UNIT     CODE           ?PR?_SETDBGDATA_DMA?DMA
   *DEL*:           000008H   BYTE   UNIT     CODE           ?PR?ENABLERUN_DMA0?DMA
   *DEL*:           000008H   BYTE   UNIT     CODE           ?PR?ENABLERUN_DMA1?DMA
   *DEL*:           00000FH   BYTE   UNIT     CODE           ?PR?_GETSTATUS_DMA0?DMA
   *DEL*:           00000FH   BYTE   UNIT     CODE           ?PR?_GETSTATUS_DMA1?DMA
   *DEL*:           00001EH   BYTE   UNIT     CODE           ?PR?__FLASH_CTRL?FLASH
   *DEL*:           000059H   BYTE   UNIT     CODE           ?PR?_FLASH_ERASE?FLASH
   *DEL*:           000002H   BYTE   UNIT     XDATA          ?XD?_FLASH_ERASE?FLASH
   *DEL*:           000031H   BYTE   UNIT     CODE           ?PR?_FLASH_PROGARM?FLASH
   *DEL*:           00009EH   BYTE   UNIT     CODE           ?PR?_FLASH_PROGARMS?FLASH
   *DEL*:           00000AH   BYTE   UNIT     XDATA          ?XD?_FLASH_PROGARMS?FLASH
   *DEL*:           00002EH   BYTE   UNIT     CODE           ?PR?SPI_INIT?SPI
   *DEL*:           000001H   BYTE   UNIT     CODE           ?PR?TIM1_INITIAL?TIMER
   *DEL*:           000001H   BYTE   UNIT     CODE           ?PR?TIM2_INITIAL?TIMER
   *DEL*:           000049H   BYTE   UNIT     CODE           ?PR?TIM3_INITIAL?TIMER
   *DEL*:           000026H   BYTE   UNIT     CODE           ?PR?UART1_INIT?UART
   *DEL*:           00004AH   BYTE   UNIT     CODE           ?PR?UART2_INIT?UART
   *DEL*:           000036H   BYTE   UNIT     CODE           ?PR?_UART1_TRANSMIT?UART
   *DEL*:           00002EH   BYTE   UNIT     CODE           ?PR?UART_COUNTEVENT?UART
   *DEL*:           00002EH   BYTE   UNIT     CODE           ?PR?UART1_RECEIVEEVENT?UART
   *DEL*:           00003BH   BYTE   UNIT     CODE           ?PR?UART1_TRANSMITEVENT?UART
LX51 LINKER/LOCATER V4.66.30.0                                                        04/09/2024  13:54:58  PAGE 6


   *DEL*:           000015H   BYTE   UNIT     CODE           ?PR?_STRLEN?STRLEN



OVERLAY MAP OF MODULE:   .\Objects\AVC_ProjectV1_0_7 (ADDFUNCTION)


FUNCTION/MODULE                               XDATA_GROUP
--> CALLED FUNCTION/MODULE                    START  STOP
=========================================================
LVW_TSD_INT/INTERRUPT                         ----- -----

*** NEW ROOT ********************************

EXTERN_INT/INTERRUPT                          ----- -----

*** NEW ROOT ********************************

DRV_ISR/INTERRUPT                             ----- -----
  +--> _FAULT_SOFTOVERCURRENT/MOTORPROTECT
  +--> TAILWINDSPEEDDETECT/MOTORTAILWIND

_FAULT_SOFTOVERCURRENT/MOTORPROTECT           ----- -----

TAILWINDSPEEDDETECT/MOTORTAILWIND             ----- -----

*** NEW ROOT ********************************

TIM2_INT/INTERRUPT                            ----- -----

*** NEW ROOT ********************************

CMP_ISR/INTERRUPT                             ----- -----
  +--> BEMFDETECTFUNC/MOTORTAILWIND

BEMFDETECTFUNC/MOTORTAILWIND                  ----- -----
  +--> DRV_SECTIONCHEAK/MOTORTAILWIND
  +--> BEMFSPEEDDETECT/MOTORTAILWIND
  +--> BEMFSPEEDCAL/MOTORTAILWIND
  +--> BEMFFOCCLOSELOOPSTART/MOTORTAILWIND

DRV_SECTIONCHEAK/MOTORTAILWIND                ----- -----
  +--> GETBEMFSTATUS/MOTORTAILWIND

GETBEMFSTATUS/MOTORTAILWIND                   ----- -----

BEMFSPEEDDETECT/MOTORTAILWIND                 ----- -----

BEMFSPEEDCAL/MOTORTAILWIND                    ----- -----

BEMFFOCCLOSELOOPSTART/MOTORTAILWIND           ----- -----
  +--> FOC_INIT/MOTORCONTROLFUNCTION

FOC_INIT/MOTORCONTROLFUNCTION                 ----- -----

*** NEW ROOT ********************************

TIM3_INT/INTERRUPT                            ----- -----
  +--> DELL_COASTMODE_IF_EVENT/ACLOSTFUNC

DELL_COASTMODE_IF_EVENT/ACLOSTFUNC            ----- -----
  +--> _FG_SETFAKESPPED/SIGNALOUTPUTCONTROL

_FG_SETFAKESPPED/SIGNALOUTPUTCONTROL          ----- -----

LX51 LINKER/LOCATER V4.66.30.0                                                        04/09/2024  13:54:58  PAGE 7


*** NEW ROOT ********************************

SYSTICK_INT/INTERRUPT                         ----- -----
  +--> SIGNALOUTPUT_COUNTER/SIGNALOUTPUTCONTROL
  +--> SLOWDOWN_RESPONSE_FUNCTION/ADDFUNCTION
  +--> DELL_COASTMODE_PROCESS/ACLOSTFUNC
  +--> SPEED_RESPONSE/ADDFUNCTION
  +--> FAULT_DETECTION/MOTORPROTECT
  +--> STARRAMPDEALWITH/ADDFUNCTION

SIGNALOUTPUT_COUNTER/SIGNALOUTPUTCONTROL      ----- -----

SLOWDOWN_RESPONSE_FUNCTION/ADDFUNCTION        ----- -----
  +--> _ABS/ABS

_ABS/ABS                                      ----- -----

DELL_COASTMODE_PROCESS/ACLOSTFUNC             ----- -----

SPEED_RESPONSE/ADDFUNCTION                    ----- -----
  +--> _MC_RAMP/ADDFUNCTION
  +--> _HW_ONE_PI/ADDFUNCTION

_MC_RAMP/ADDFUNCTION                          0217H 0219H
  +--> _DELL_COSTMODE_SLOWWOLK/ACLOSTFUNC

_DELL_COSTMODE_SLOWWOLK/ACLOSTFUNC            021AH 021CH

_HW_ONE_PI/ADDFUNCTION                        ----- -----

FAULT_DETECTION/MOTORPROTECT                  ----- -----
  +--> FAULT_OVERUNDERVOLTAGE/MOTORPROTECT
  +--> FAULT_STALL/MOTORPROTECT
  +--> FAULT_PHASELOSS/MOTORPROTECT

FAULT_OVERUNDERVOLTAGE/MOTORPROTECT           ----- -----

FAULT_STALL/MOTORPROTECT                      ----- -----

FAULT_PHASELOSS/MOTORPROTECT                  ----- -----

STARRAMPDEALWITH/ADDFUNCTION                  ----- -----

*** NEW ROOT ********************************

TIM4_INT/INTERRUPT                            ----- -----
  +--> FG_UPDATE_EVENT/SIGNALOUTPUTCONTROL

FG_UPDATE_EVENT/SIGNALOUTPUTCONTROL           ----- -----

*** NEW ROOT ********************************

CMP3_INT/INTERRUPT                            ----- -----

*** NEW ROOT ********************************

?C_C51STARTUP                                 ----- -----
  +--> MAIN/MAIN
  +--> ?C_INITSEG

MAIN/MAIN                                     ----- -----
  +--> SOFTWAREINIT/MAIN
  +--> HARDWAREINIT/MAIN
  +--> GETCURRENTOFFSET/MOTORCONTROLFUNCTION
  +--> MC_CONTROL/MOTORCONTROL
LX51 LINKER/LOCATER V4.66.30.0                                                        04/09/2024  13:54:58  PAGE 8


  +--> VSP_SPEEDCONTROL/PWM_SPEEDCONTROL
  +--> SIGNALOUTPUT_PROCESS/SIGNALOUTPUTCONTROL

SOFTWAREINIT/MAIN                             ----- -----
  +--> SIGNALOUTPUT_INITIAL/SIGNALOUTPUTCONTROL
  +--> DELL_COASTMODE_INITIAL/ACLOSTFUNC
  +--> MOTORCONTROLINIT/MOTORCONTROLFUNCTION

SIGNALOUTPUT_INITIAL/SIGNALOUTPUTCONTROL      ----- -----

DELL_COASTMODE_INITIAL/ACLOSTFUNC             ----- -----

MOTORCONTROLINIT/MOTORCONTROLFUNCTION         ----- -----
  +--> FAULTVARIBLE_INITIAL/MOTORPROTECT

FAULTVARIBLE_INITIAL/MOTORPROTECT             ----- -----

HARDWAREINIT/MAIN                             ----- -----
  +--> GPIO_INIT/GPIO
  +--> ADC_INIT/ADC
  +--> DRIVER_INIT/DRIVER
  +--> AMP_INIT/AMP
  +--> CMP3_INTERRUPT_INIT/CMP
  +--> CMP3_INIT/CMP
  +--> TIM4_INITIAL/TIMER
  +--> SYSTICK_INITIAL/TIMER

GPIO_INIT/GPIO                                ----- -----

ADC_INIT/ADC                                  ----- -----

DRIVER_INIT/DRIVER                            ----- -----

AMP_INIT/AMP                                  ----- -----

CMP3_INTERRUPT_INIT/CMP                       ----- -----

CMP3_INIT/CMP                                 ----- -----

TIM4_INITIAL/TIMER                            ----- -----

SYSTICK_INITIAL/TIMER                         ----- -----

GETCURRENTOFFSET/MOTORCONTROLFUNCTION         ----- -----

MC_CONTROL/MOTORCONTROL                       ----- -----
  +--> DELL_COASTMODE_STATE/ACLOSTFUNC
  +--> MOTOR_READY/MOTORCONTROLFUNCTION
  +--> MOTOR_INIT/MOTORCONTROLFUNCTION
  +--> MOTOR_TAILWIND/MOTORCONTROLFUNCTION
  +--> MOTOR_ALIGN/MOTORCONTROLFUNCTION
  +--> MOTOR_OPEN/MOTORCONTROLFUNCTION
  +--> FAULTPROCESS/MOTORPROTECT

DELL_COASTMODE_STATE/ACLOSTFUNC               ----- -----

MOTOR_READY/MOTORCONTROLFUNCTION              ----- -----

MOTOR_INIT/MOTORCONTROLFUNCTION               ----- -----
  +--> VARIABLESPREINIT/MOTORCONTROLFUNCTION
  +--> PI_INIT/PID

VARIABLESPREINIT/MOTORCONTROLFUNCTION         ----- -----
  +--> TAILWINDVARIBLE_INITIAL/MOTORTAILWIND
  +--> FAULTVARIBLE_INITIAL/MOTORPROTECT
LX51 LINKER/LOCATER V4.66.30.0                                                        04/09/2024  13:54:58  PAGE 9



TAILWINDVARIBLE_INITIAL/MOTORTAILWIND         ----- -----

PI_INIT/PID                                   ----- -----

MOTOR_TAILWIND/MOTORCONTROLFUNCTION           ----- -----
  +--> BEMFDETECTINIT/MOTORTAILWIND
  +--> BEMFDEALWITH/MOTORTAILWIND

BEMFDETECTINIT/MOTORTAILWIND                  ----- -----
  +--> TIME2_BMEF_INIT/MOTORTAILWIND
  +--> CMP_BMEF_INIT/MOTORTAILWIND

TIME2_BMEF_INIT/MOTORTAILWIND                 ----- -----

CMP_BMEF_INIT/MOTORTAILWIND                   ----- -----

BEMFDEALWITH/MOTORTAILWIND                    ----- -----
  +--> DELL_COASTMODE_SLOWWOLKSTATE/ACLOSTFUNC

DELL_COASTMODE_SLOWWOLKSTATE/ACLOSTFUNC       ----- -----

MOTOR_ALIGN/MOTORCONTROLFUNCTION              ----- -----
  +--> FOC_INIT/MOTORCONTROLFUNCTION

MOTOR_OPEN/MOTORCONTROLFUNCTION               ----- -----
  +--> FOC_INIT/MOTORCONTROLFUNCTION

FAULTPROCESS/MOTORPROTECT                     ----- -----

VSP_SPEEDCONTROL/PWM_SPEEDCONTROL             ----- -----
  +--> VSPSHUTDOWN_FUNCTION/PWM_SPEEDCONTROL

VSPSHUTDOWN_FUNCTION/PWM_SPEEDCONTROL         ----- -----

SIGNALOUTPUT_PROCESS/SIGNALOUTPUTCONTROL      ----- -----

?C_INITSEG                                    ----- -----



PUBLIC SYMBOLS OF MODULE:  .\Objects\AVC_ProjectV1_0_7 (ADDFUNCTION)


      VALUE       CLASS    TYPE      PUBLIC SYMBOL NAME
      =================================================
*DEL*:00000000H   XDATA    BYTE      ?_FLASH_Progarms?BYTE
      010003BBH   CODE     ---       ?C?CASTF
      01000482H   CODE     ---       ?C?CILDPTR
      01000455H   CODE     ---       ?C?CLDOPTR
      0100043CH   CODE     ---       ?C?CLDPTR
      00000000H   NUMBER   ---       ?C?CODESEG
      010004A4H   CODE     ---       ?C?CSTPTR
      01000387H   CODE     ---       ?C?FCASTC
      01000382H   CODE     ---       ?C?FCASTI
      0100037DH   CODE     ---       ?C?FCASTL
      0100006DH   CODE     ---       ?C?FPADD
      01000306H   CODE     ---       ?C?FPCMP
      01000304H   CODE     ---       ?C?FPCMP3
      01000267H   CODE     ---       ?C?FPDIV
      010003F2H   CODE     ---       ?C?FPGETOPN2
      0100015EH   CODE     ---       ?C?FPMUL
      01000427H   CODE     ---       ?C?FPNANRESULT
      01000431H   CODE     ---       ?C?FPOVERFLOW
      01000409H   CODE     ---       ?C?FPRESULT
LX51 LINKER/LOCATER V4.66.30.0                                                        04/09/2024  13:54:58  PAGE 10


      0100041DH   CODE     ---       ?C?FPRESULT2
      01000069H   CODE     ---       ?C?FPSUB
      0100042EH   CODE     ---       ?C?FPUNDERFLOW
      0100052FH   CODE     ---       ?C?IILDOPTR
      010004B6H   CODE     ---       ?C?IILDX
      010004F7H   CODE     ---       ?C?ILDOPTR
      010004CCH   CODE     ---       ?C?ILDPTR
      0100059BH   CODE     ---       ?C?ISTOPTR
      0100057CH   CODE     ---       ?C?ISTPTR
      0100064BH   CODE     ---       ?C?LIMUL
      010005C8H   CODE     ---       ?C?LNEG
      0100061AH   CODE     ---       ?C?LSTKXDATA
      0100060EH   CODE     ---       ?C?LSTXDATA
      01000678H   CODE     ---       ?C?MEMSET
      010005FAH   CODE     ---       ?C?SLSHR
      010005D6H   CODE     ---       ?C?ULCMP
      010005E7H   CODE     ---       ?C?ULSHR
      00000000H   NUMBER   ---       ?C?XDATASEG
      01002522H   CODE     ---       ?C_START
      01000000H   CODE     ---       ?C_STARTUP
      020001ACH   XDATA    BYTE      __U1Tx_Position
      0100003EH   CODE     ---       _ABS
*DEL*:00000000H   CODE     ---       _Abs_F32
*DEL*:00000000H   CODE     ---       _DELL_coastMode_IC_Event
      010025FFH   CODE     ---       _DELL_costMode_SlowWolk
      010021CCH   CODE     ---       _Fault_softOverCurrent
      010030A9H   CODE     ---       _FG_setFakeSpped
*DEL*:00000000H   CODE     ---       _FLASH_Erase
*DEL*:00000000H   CODE     ---       _FLASH_Progarm
*DEL*:00000000H   CODE     ---       _FLASH_Progarms
*DEL*:00000000H   CODE     ---       _GetStatus_DMA0
*DEL*:00000000H   CODE     ---       _GetStatus_DMA1
*DEL*:00000000H   CODE     ---       _HPFCOL_SpeedControl
      01003035H   CODE     ---       _HW_One_PI
      010006A4H   CODE     ---       _mc_ramp
*DEL*:00000000H   CODE     ---       _Set_DBG_DMA
*DEL*:00000000H   CODE     ---       _SetDataPackage_DMA0
*DEL*:00000000H   CODE     ---       _SetDataPackage_DMA1
*DEL*:00000000H   CODE     ---       _SetDbgData_DMA
*DEL*:00000000H   CODE     ---       _SetEndian_DMA
*DEL*:00000000H   CODE     ---       _SetIRQ_DMA
*DEL*:00000000H   CODE     ---       _SetPipe_DMA0
*DEL*:00000000H   CODE     ---       _SetPipe_DMA1
*DEL*:00000000H   CODE     ---       _STRLEN
*DEL*:00000000H   CODE     ---       _SW_CRC8_Calc
*DEL*:00000000H   CODE     ---       _UART1_Transmit
*SFR* 000000D0H.6 DATA     BIT       AC
      020001CAH   XDATA    BYTE      AC_Lose_FG_Flag
      020001CEH   XDATA    BYTE      AC_Lose_Flag
      020001CBH   XDATA    WORD      AC_Lose_Power_Limit
      020001DAH   XDATA    BYTE      AC_Lose_Step
      020001D8H   XDATA    BYTE      AC_Lose_Step_Count
      020001CDH   XDATA    BYTE      AC_Lose_Step_Flag
      020001D9H   XDATA    BYTE      AC_Lose_Zero_Count
      020001D7H   XDATA    BYTE      AC_Lose_Zero_Flag
*SFR* 000000E0H   DATA     BYTE      ACC
      0100295BH   CODE     ---       ADC_Init
      02000058H   XDATA    ---       ADCSampling
      0200018CH   XDATA    ---       Align_Calib
      02000195H   XDATA    INT       Align_Value
      01002F4FH   CODE     ---       AMP_Init
*DEL*:00000000H   CODE     ---       APP_DIV
      020000CBH   XDATA    ---       BEMF2SECTION
      01001061H   CODE     ---       BEMFDealwith
      020000D3H   XDATA    ---       BEMFDetect
LX51 LINKER/LOCATER V4.66.30.0                                                        04/09/2024  13:54:58  PAGE 11


      01002DD0H   CODE     ---       BEMFDetectFunc
      01002D92H   CODE     ---       BEMFDetectInit
      01001EAAH   CODE     ---       BEMFFOCCloseLoopStart
      01002B37H   CODE     ---       BEMFSpeedCal
      010020C9H   CODE     ---       BEMFSpeedDetect
      020000B8H   XDATA    BYTE      brakefinishflag
      020000C5H   XDATA    ---       buf
      020001DBH   XDATA    ---       c_TurboFan
*DEL*:00000000H   CODE     ---       CMP0_Init
      01002A86H   CODE     ---       CMP3_Init
      01002F9CH   CODE     ---       CMP3_INT
      0100309BH   CODE     ---       CMP3_Interrupt_Init
      01002CC0H   CODE     ---       CMP_BMEF_Init
*SFR* 000000D5H   DATA     BYTE      CMP_CR0
*SFR* 000000D6H   DATA     BYTE      CMP_CR1
*SFR* 000000DAH   DATA     BYTE      CMP_CR2
*SFR* 000000DCH   DATA     BYTE      CMP_CR3
*SFR* 000000E1H   DATA     BYTE      CMP_CR4
      01002BDFH   CODE     ---       CMP_ISR
*SFR* 000000D7H   DATA     BYTE      CMP_SR
*DEL*:00000000H   CONST    ---       crc8_Table
*DEL*:00000000H   CODE     ---       CurrentLimiter_Process
*SFR* 000000D0H.7 DATA     BIT       CY
      01002A26H   CODE     ---       DELL_coastMode_IF_Event
      01003067H   CODE     ---       DELL_coastMode_Initial
      01002E70H   CODE     ---       DELL_coastMode_Process
      010030B8H   CODE     ---       DELL_coastMode_slowWolkState
      0100307BH   CODE     ---       DELL_coastMode_State
      020001FFH   XDATA    ---       DELL_CoastMode_Var
*SFR* 00000082H   DATA     WORD      DPTR
      02000060H   XDATA    WORD      DQKI_Value
      02000065H   XDATA    WORD      DQKP_Value
      01002888H   CODE     ---       Driver_Init
      010029C1H   CODE     ---       DRV_ISR
*SFR* 000000F8H   DATA     BYTE      DRV_OUT
      01001D78H   CODE     ---       Drv_SectionCheak
      0200010EH   XDATA    ---       DUMMY_SPACE
*SFR* 000000A8H.7 DATA     BIT       EA
      020001C4H   XDATA    INT       EK1
      020001C6H   XDATA    INT       EK2
      020001C8H   XDATA    INT       EK3
*DEL*:00000000H   CODE     ---       EnableRun_DMA0
*DEL*:00000000H   CODE     ---       EnableRun_DMA1
*SFR* 000000A8H.4 DATA     BIT       ES0
*SFR* 000000D9H   DATA     BYTE      EVT_FILT
*SFR* 000000A8H   DATA     BIT       EX0
*SFR* 000000A8H.2 DATA     BIT       EX1
      01000016H   CODE     ---       EXTERN_INT
*SFR* 000000D0H.5 DATA     BIT       F0
*SFR* 000000D0H.1 DATA     BIT       F1
      02000056H   XDATA    WORD      F_Stall_Value
      010016C2H   CODE     ---       Fault_Detection
      01002797H   CODE     ---       Fault_OverUnderVoltage
      0100182AH   CODE     ---       Fault_phaseLoss
      01001225H   CODE     ---       Fault_Stall
      01002FBEH   CODE     ---       FaultProcess
      01002FDFH   CODE     ---       faultVarible_Initial
      0200006BH   XDATA    WORD      FG_ARR_Value
      02000064H   XDATA    BYTE      FG_Standard_Count
      02000070H   XDATA    DWORD     FG_Standard_LPF_Value
      02000054H   XDATA    WORD      FG_Standard_Value
      01002EFBH   CODE     ---       FG_Update_Event
*SFR* 00000085H   DATA     BYTE      FLA_CR
*SFR* 00000084H   DATA     BYTE      FLA_KEY
      020000B6H   XDATA    INT       FOC__THECOMP_Temp
LX51 LINKER/LOCATER V4.66.30.0                                                        04/09/2024  13:54:58  PAGE 12


      01001987H   CODE     ---       FOC_Init
      02000085H   XDATA    WORD      FOC_TSMIN_Change_Count
      02000074H   XDATA    BYTE      FOC_TSMIN_Change_Flag
*DEL*:00000000H   CODE     ---       FOC_TSMIN_Close_Function
      02000069H   XDATA    WORD      FOC_TSMIN_Value
      0200008DH   XDATA    INT       FocIqTemp
      00000008H   DATA     BYTE      g_1mTick
      0100304EH   CODE     ---       GetBEMFStatus
      01002361H   CODE     ---       GetCurrentOffset
*SFR* 00000080H   DATA     BIT       GP00
*SFR* 00000080H.1 DATA     BIT       GP01
*SFR* 00000080H.2 DATA     BIT       GP02
*SFR* 00000080H.3 DATA     BIT       GP03
*SFR* 00000080H.4 DATA     BIT       GP04
*SFR* 00000080H.5 DATA     BIT       GP05
*SFR* 00000080H.6 DATA     BIT       GP06
*SFR* 00000080H.7 DATA     BIT       GP07
*SFR* 00000090H   DATA     BIT       GP10
*SFR* 00000090H.1 DATA     BIT       GP11
*SFR* 00000090H.2 DATA     BIT       GP12
*SFR* 00000090H.3 DATA     BIT       GP13
*SFR* 00000090H.4 DATA     BIT       GP14
*SFR* 00000090H.5 DATA     BIT       GP15
*SFR* 00000090H.6 DATA     BIT       GP16
*SFR* 00000090H.7 DATA     BIT       GP17
*SFR* 000000A0H   DATA     BIT       GP20
*SFR* 000000A0H.1 DATA     BIT       GP21
*SFR* 000000A0H.2 DATA     BIT       GP22
*SFR* 000000A0H.3 DATA     BIT       GP23
*SFR* 000000A0H.4 DATA     BIT       GP24
*SFR* 000000A0H.5 DATA     BIT       GP25
*SFR* 000000A0H.6 DATA     BIT       GP26
*SFR* 000000A0H.7 DATA     BIT       GP27
*SFR* 000000B0H   DATA     BIT       GP30
*SFR* 000000B0H.1 DATA     BIT       GP31
*SFR* 000000B0H.2 DATA     BIT       GP32
*SFR* 000000B0H.3 DATA     BIT       GP33
*SFR* 000000B0H.4 DATA     BIT       GP34
*SFR* 000000B0H.5 DATA     BIT       GP35
*SFR* 000000B0H.6 DATA     BIT       GP36
*SFR* 000000B0H.7 DATA     BIT       GP37
*SFR* 000000E8H.2 DATA     BIT       GP42
*SFR* 000000E8H.3 DATA     BIT       GP43
*SFR* 000000E8H.4 DATA     BIT       GP44
*SFR* 000000E8H.5 DATA     BIT       GP45
      01000006H   CODE     ---       GPIO_Init
      01002D08H   CODE     ---       HardwareInit
      020001F3H   XDATA    ---       HPFCOL
*DEL*:00000000H   CODE     ---       HPFCOL_CommDetection
*DEL*:00000000H   CONST    ---       HPFCOL_Data
*DEL*:00000000H   CODE     ---       HPFCOL_Initial
*DEL*:00000000H   CODE     ---       HPFCOLCounter_Event
*DEL*:00000000H   CODE     ---       HPFCOLUpdate_Event
*SFR* 000000A8H   DATA     BYTE      IE
*SFR* 00000088H.2 DATA     BIT       IF0
*SFR* 000000B8H   DATA     BYTE      IP0
*SFR* 000000C0H   DATA     BYTE      IP1
*SFR* 000000C8H   DATA     BYTE      IP2
*SFR* 000000D8H   DATA     BYTE      IP3
*SFR* 00000088H   DATA     BIT       IT00
*SFR* 00000088H.1 DATA     BIT       IT01
*SFR* 00000088H.3 DATA     BIT       IT10
*SFR* 00000088H.4 DATA     BIT       IT11
*SFR* 000000DBH   DATA     BYTE      LVSR
      010030B2H   CODE     ---       LVW_TSD_INT
LX51 LINKER/LOCATER V4.66.30.0                                                        04/09/2024  13:54:58  PAGE 13


      01002D4FH   CODE     ---       main
      01001559H   CODE     ---       MC_Control
      0200006FH   XDATA    BYTE      mc_ramp_Flag
*DEL*:00000000H   CODE     ---       MC_Stop
      02000197H   XDATA    ---       mcCurOffset
      0000001FH   IDATA    ---       mcCurVarible
      00000038H   IDATA    ---       mcFaultDect
      0200020DH   XDATA    ---       mcFaultSource
      02000004H   XDATA    ---       mcFocCtrl
      0200008FH   XDATA    ---       mcFRState
      00000036H   IDATA    ---       mcProtectTime
      02000168H   XDATA    ---       mcPWM_Input
      00000009H   IDATA    ---       mcPwmInput
      02000078H   XDATA    ---       mcSpeedRamp
      0200021DH   XDATA    ---       McStaSet
      02000220H   XDATA    BYTE      mcState
      00000012H   IDATA    ---       mcVspInput
*SFR* 000000C6H   DATA     WORD      MDU_A
*SFR* 000000C4H   DATA     WORD      MDU_B
*SFR* 000000C2H   DATA     WORD      MDU_C
*SFR* 000000C1H   DATA     BYTE      MDU_CR
*SFR* 000000CBH   DATA     BYTE      MDU_D
*SFR* 000000CAH   DATA     BYTE      MDU_MD
*SFR* 000000F8H.7 DATA     BIT       MOE
      01001C2DH   CODE     ---       Motor_Align
*DEL*:00000000H   CODE     ---       Motor_Charge
      01002F78H   CODE     ---       Motor_Init
      010022A4H   CODE     ---       Motor_Open
      01002AE1H   CODE     ---       Motor_Ready
      01002E3FH   CODE     ---       Motor_TailWind
      01002567H   CODE     ---       MotorcontrolInit
      02000099H   XDATA    WORD      MotorControlVSP
      02000052H   XDATA    WORD      MotorSpeedVSP
*SFR* 000000F8H   DATA     BIT       OISUH
*SFR* 000000F8H.1 DATA     BIT       OISUL
*SFR* 000000F8H.2 DATA     BIT       OISVH
*SFR* 000000F8H.3 DATA     BIT       OISVL
*SFR* 000000F8H.4 DATA     BIT       OISWH
*SFR* 000000F8H.5 DATA     BIT       OISWL
      02000075H   XDATA    WORD      Open_FOC_UQFlag
      02000095H   XDATA    WORD      Open_FOC_UQTransTime
      02000002H   XDATA    WORD      Open_TailWind_Count
      02000097H   XDATA    WORD      Open_TailWind_Flag
*SFR* 000000D0H.2 DATA     BIT       OV
*SFR* 000000D0H   DATA     BIT       P
*SFR* 00000080H   DATA     BYTE      P0
*SFR* 000000FCH   DATA     BYTE      P0_OE
*SFR* 00000090H   DATA     BYTE      P1
*SFR* 000000D1H   DATA     BYTE      P1_IE
*SFR* 000000D2H   DATA     BYTE      P1_IF
*SFR* 000000FDH   DATA     BYTE      P1_OE
*SFR* 000000A0H   DATA     BYTE      P2
*SFR* 000000D3H   DATA     BYTE      P2_IE
*SFR* 000000D4H   DATA     BYTE      P2_IF
*SFR* 000000FEH   DATA     BYTE      P2_OE
*SFR* 000000B0H   DATA     BYTE      P3
*SFR* 000000FFH   DATA     BYTE      P3_OE
*SFR* 000000E8H   DATA     BYTE      P4
*SFR* 000000E9H   DATA     BYTE      P4_OE
*SFR* 000000C0H.4 DATA     BIT       PADC0
*SFR* 000000C0H.5 DATA     BIT       PADC1
*SFR* 000000C0H.6 DATA     BIT       PCMP0
*SFR* 000000C0H.7 DATA     BIT       PCMP1
*SFR* 000000D8H   DATA     BIT       PCMP30
*SFR* 000000D8H.1 DATA     BIT       PCMP31
LX51 LINKER/LOCATER V4.66.30.0                                                        04/09/2024  13:54:58  PAGE 14


*SFR* 00000087H   DATA     BYTE      PCON
*SFR* 000000D8H.6 DATA     BIT       PDMA0
*SFR* 000000D8H.7 DATA     BIT       PDMA1
*SFR* 000000B8H.6 DATA     BIT       PDRV0
*SFR* 000000B8H.7 DATA     BIT       PDRV1
*SFR* 000000D8H.2 DATA     BIT       PI2C_UT10
*SFR* 000000D8H.3 DATA     BIT       PI2C_UT11
*SFR* 000000F9H   DATA     BYTE      PI_CR
      01002C77H   CODE     ---       PI_Init
*SFR* 000000B8H   DATA     BIT       PLVW0
*SFR* 000000B8H.1 DATA     BIT       PLVW1
*SFR* 000000C8H   DATA     BIT       PRTC0
*SFR* 000000C8H.1 DATA     BIT       PRTC1
*SFR* 000000D8H.4 DATA     BIT       PSPI_UT20
*SFR* 000000D8H.5 DATA     BIT       PSPI_UT21
*SFR* 000000D0H   DATA     BYTE      PSW
*SFR* 000000C8H.4 DATA     BIT       PSYSTICK0
*SFR* 000000C8H.5 DATA     BIT       PSYSTICK1
*SFR* 000000C0H.2 DATA     BIT       PTIM10
*SFR* 000000C0H.3 DATA     BIT       PTIM11
*SFR* 000000C0H   DATA     BIT       PTIM20
*SFR* 000000C0H.1 DATA     BIT       PTIM21
*SFR* 000000C8H.2 DATA     BIT       PTIM30
*SFR* 000000C8H.3 DATA     BIT       PTIM31
*SFR* 000000C8H.6 DATA     BIT       PTIM40
*SFR* 000000C8H.7 DATA     BIT       PTIM41
*DEL*:00000000H   CODE     ---       PWM_capture
      02000089H   XDATA    WORD      PWM_Curve_Duty
*DEL*:00000000H   CODE     ---       PWM_overFlowDetection
*DEL*:00000000H   CODE     ---       PWM_speedControl
      0200014EH   XDATA    ---       PWMCurve_dutyArray
      02000172H   XDATA    ---       PWMCurve_speedArray
*SFR* 000000B8H.2 DATA     BIT       PX00
*SFR* 000000B8H.3 DATA     BIT       PX01
*SFR* 000000B8H.4 DATA     BIT       PX10
*SFR* 000000B8H.5 DATA     BIT       PX11
      02000067H   XDATA    INT       QOUT_Value_revise
*SFR* 00000098H.2 DATA     BIT       RB8
      02000221H   XDATA    WORD      RealVolt
*SFR* 00000098H.4 DATA     BIT       REN
*SFR* 00000098H   DATA     BIT       RI
*SFR* 000000D0H.3 DATA     BIT       RS0
*SFR* 000000D0H.4 DATA     BIT       RS1
*SFR* 000000C9H   DATA     BYTE      RST_SR
*SFR* 000000A8H.6 DATA     BIT       RTCIE
*DEL*:00000000H   CODE     ---       runSVPWM5_Function
*DEL*:00000000H   CODE     ---       SetDbgMod_DMA
*DEL*:00000000H   CODE     ---       SignalOutput_Continue
      01002ECFH   CODE     ---       SignalOutput_Counter
      0100308BH   CODE     ---       SignalOutput_initial
*DEL*:00000000H   CODE     ---       SignalOutput_Pause
      01001ADBH   CODE     ---       SignalOutput_Process
      01002819H   CODE     ---       Slowdown_Response_Function
*SFR* 00000098H.5 DATA     BIT       SM2
*DEL*:00000000H   CODE     ---       SMO_TailWindDealwith
      0200020FH   XDATA    ---       SO_Var
      01000026H   CODE     ---       SoftwareInit
      01000A16H   CODE     ---       Speed_response
*DEL*:00000000H   CODE     ---       SPI_Init
      020001CFH   XDATA    ---       spidebug
*SFR* 000000A8H.3 DATA     BIT       SPIIE
      02000209H   XDATA    WORD      Stall_CCW_State_Count
      0200020BH   XDATA    WORD      Stall_Diff_RecoverTime
      01002688H   CODE     ---       StarRampDealwith
      020000B9H   XDATA    ---       Stk
LX51 LINKER/LOCATER V4.66.30.0                                                        04/09/2024  13:54:58  PAGE 15


      02000077H   XDATA    BYTE      SVPM5FlagTrigger
      0200006DH   XDATA    INT       SVPWM5_Value
      02000087H   XDATA    INT       SVPWM5_Value1
      0200008BH   XDATA    WORD      SVPWM_Trans_Flag
      0200009BH   XDATA    WORD      SVPWM_Trans_Time
      0100301AH   CODE     ---       sysTick_Initial
      01000D3FH   CODE     ---       SYStick_INT
      020000A0H   XDATA    ---       TailWindDetect
*DEL*:00000000H   CODE     ---       TailWindDetectInit
      01001FC2H   CODE     ---       TailWindSpeedDetect
      01002F26H   CODE     ---       tailWindVarible_Initial
*SFR* 00000098H.3 DATA     BIT       TB8
*SFR* 00000088H   DATA     BYTE      TCON
      02000223H   XDATA    WORD      Temp_DAC0
*SFR* 00000098H.1 DATA     BIT       TI
*DEL*:00000000H   CODE     ---       TIM1_Initial
*SFR* 000000AEH   DATA     WORD      TIM2__ARR
*SFR* 000000AAH   DATA     WORD      TIM2__CNTR
*SFR* 000000ACH   DATA     WORD      TIM2__DR
*SFR* 000000A1H   DATA     BYTE      TIM2_CR0
*SFR* 000000A9H   DATA     BYTE      TIM2_CR1
*DEL*:00000000H   CODE     ---       TIM2_Initial
      01002FFDH   CODE     ---       TIM2_INT
*SFR* 000000A6H   DATA     WORD      TIM3__ARR
*SFR* 000000A2H   DATA     WORD      TIM3__CNTR
*SFR* 000000A4H   DATA     WORD      TIM3__DR
*SFR* 0000009CH   DATA     BYTE      TIM3_CR0
*SFR* 0000009DH   DATA     BYTE      TIM3_CR1
*DEL*:00000000H   CODE     ---       TIM3_Initial
      01002B8CH   CODE     ---       TIM3_INT
*SFR* 00000096H   DATA     WORD      TIM4__ARR
*SFR* 00000092H   DATA     WORD      TIM4__CNTR
*SFR* 00000094H   DATA     WORD      TIM4__DR
*SFR* 0000009EH   DATA     BYTE      TIM4_CR0
*SFR* 0000009FH   DATA     BYTE      TIM4_CR1
*DEL*:00000000H   CODE     ---       TIM4_HPFCOL_Initial
      010028F4H   CODE     ---       TIM4_Initial
      01002C2CH   CODE     ---       TIM4_INT
      01002EA1H   CODE     ---       Time2_BMEF_Init
      0200021EH   XDATA    WORD      TimeCnt
      02000062H   XDATA    WORD      TorqueLoopTime_Flag
*SFR* 000000A8H.1 DATA     BIT       TSDIE
*SFR* 00000088H.5 DATA     BIT       TSDIF
*DEL*:00000000H   CODE     ---       TurboFan_CountEvent
*DEL*:00000000H   CODE     ---       TurboFan_Initial
*DEL*:00000000H   CODE     ---       TurboFan_ProcessEvent
      020001ADH   XDATA    ---       UART1
*DEL*:00000000H   CODE     ---       UART1_Init
*DEL*:00000000H   CODE     ---       Uart1_ReceiveEvent
*DEL*:00000000H   CODE     ---       Uart1_TransmitEvent
*DEL*:00000000H   CODE     ---       UART2_Init
*DEL*:00000000H   CODE     ---       Uart_CountEvent
*SFR* 0000008AH   DATA     BYTE      UT2_CR
*SFR* 00000089H   DATA     BYTE      UT2_DR
*SFR* 0000009AH   DATA     WORD      UT_BAUD
*SFR* 00000098H   DATA     BYTE      UT_CR
*SFR* 00000099H   DATA     BYTE      UT_DR
*SFR* 00000098H.6 DATA     BIT       UT_MOD0
*SFR* 00000098H.7 DATA     BIT       UT_MOD1
      01002E0DH   CODE     ---       VariablesPreInit
      0100241DH   CODE     ---       VSP_speedControl
      01002710H   CODE     ---       VSPShutDown_Function
*DEL*:00000000H   CODE     ---       Watt_Limit_Function


LX51 LINKER/LOCATER V4.66.30.0                                                        04/09/2024  13:54:58  PAGE 16



SYMBOL TABLE OF MODULE:  .\Objects\AVC_ProjectV1_0_7 (ADDFUNCTION)

      VALUE       REP       CLASS    TYPE      SYMBOL NAME
      ====================================================
      ---         MODULE    ---      ---       ADDFUNCTION
      0200009BH   PUBLIC    XDATA    WORD      SVPWM_Trans_Time
      02000099H   PUBLIC    XDATA    WORD      MotorControlVSP
      02000097H   PUBLIC    XDATA    WORD      Open_TailWind_Flag
      02000095H   PUBLIC    XDATA    WORD      Open_FOC_UQTransTime
      0200008FH   PUBLIC    XDATA    ---       mcFRState
      0200008DH   PUBLIC    XDATA    INT       FocIqTemp
      0200008BH   PUBLIC    XDATA    WORD      SVPWM_Trans_Flag
      02000089H   PUBLIC    XDATA    WORD      PWM_Curve_Duty
      02000087H   PUBLIC    XDATA    INT       SVPWM5_Value1
      02000085H   PUBLIC    XDATA    WORD      FOC_TSMIN_Change_Count
      02000078H   PUBLIC    XDATA    ---       mcSpeedRamp
      02000077H   PUBLIC    XDATA    BYTE      SVPM5FlagTrigger
      02000075H   PUBLIC    XDATA    WORD      Open_FOC_UQFlag
      02000074H   PUBLIC    XDATA    BYTE      FOC_TSMIN_Change_Flag
      02000070H   PUBLIC    XDATA    DWORD     FG_Standard_LPF_Value
      0000001FH   PUBLIC    IDATA    ---       mcCurVarible
      0200006FH   PUBLIC    XDATA    BYTE      mc_ramp_Flag
      0200006DH   PUBLIC    XDATA    INT       SVPWM5_Value
      0200006BH   PUBLIC    XDATA    WORD      FG_ARR_Value
      02000069H   PUBLIC    XDATA    WORD      FOC_TSMIN_Value
      00000012H   PUBLIC    IDATA    ---       mcVspInput
      02000067H   PUBLIC    XDATA    INT       QOUT_Value_revise
      00000009H   PUBLIC    IDATA    ---       mcPwmInput
      02000065H   PUBLIC    XDATA    WORD      DQKP_Value
      02000064H   PUBLIC    XDATA    BYTE      FG_Standard_Count
      02000062H   PUBLIC    XDATA    WORD      TorqueLoopTime_Flag
      02000060H   PUBLIC    XDATA    WORD      DQKI_Value
      02000058H   PUBLIC    XDATA    ---       ADCSampling
      02000056H   PUBLIC    XDATA    WORD      F_Stall_Value
      02000054H   PUBLIC    XDATA    WORD      FG_Standard_Value
      02000052H   PUBLIC    XDATA    WORD      MotorSpeedVSP
      02000004H   PUBLIC    XDATA    ---       mcFocCtrl
      02000002H   PUBLIC    XDATA    WORD      Open_TailWind_Count
      01002688H   PUBLIC    CODE     ---       StarRampDealwith
      01003035H   PUBLIC    CODE     ---       _HW_One_PI
      010006A4H   PUBLIC    CODE     ---       _mc_ramp
      01002819H   PUBLIC    CODE     ---       Slowdown_Response_Function
      01000A16H   PUBLIC    CODE     ---       Speed_response
      000000E8H.3 SFRSYM    DATA     BIT       GP43
      000000B0H.4 SFRSYM    DATA     BIT       GP34
      000000A0H.5 SFRSYM    DATA     BIT       GP25
      00000090H.6 SFRSYM    DATA     BIT       GP16
      00000080H.7 SFRSYM    DATA     BIT       GP07
      00000088H.1 SFRSYM    DATA     BIT       IT01
      00000088H.3 SFRSYM    DATA     BIT       IT10
      000000E8H.4 SFRSYM    DATA     BIT       GP44
      000000B0H.5 SFRSYM    DATA     BIT       GP35
      000000A0H.6 SFRSYM    DATA     BIT       GP26
      00000090H.7 SFRSYM    DATA     BIT       GP17
      00000080H   SFRSYM    DATA     BYTE      P0
      00000088H.4 SFRSYM    DATA     BIT       IT11
      000000C9H   SFRSYM    DATA     BYTE      RST_SR
      000000D9H   SFRSYM    DATA     BYTE      EVT_FILT
      000000E8H.5 SFRSYM    DATA     BIT       GP45
      000000B0H.6 SFRSYM    DATA     BIT       GP36
      000000A0H.7 SFRSYM    DATA     BIT       GP27
      00000090H   SFRSYM    DATA     BYTE      P1
      000000B0H.7 SFRSYM    DATA     BIT       GP37
      000000A0H   SFRSYM    DATA     BYTE      P2
LX51 LINKER/LOCATER V4.66.30.0                                                        04/09/2024  13:54:58  PAGE 17


      000000B0H   SFRSYM    DATA     BYTE      P3
      000000E8H   SFRSYM    DATA     BYTE      P4
      000000D0H.6 SFRSYM    DATA     BIT       AC
      000000A8H.7 SFRSYM    DATA     BIT       EA
      000000D5H   SFRSYM    DATA     BYTE      CMP_CR0
      000000D6H   SFRSYM    DATA     BYTE      CMP_CR1
      000000C6H   SFRSYM    DATA     WORD      MDU_A
      000000DAH   SFRSYM    DATA     BYTE      CMP_CR2
      000000C4H   SFRSYM    DATA     WORD      MDU_B
      000000B8H.2 SFRSYM    DATA     BIT       PX00
      000000DCH   SFRSYM    DATA     BYTE      CMP_CR3
      000000F8H   SFRSYM    DATA     BIT       OISUH
      000000C2H   SFRSYM    DATA     WORD      MDU_C
      000000B8H.3 SFRSYM    DATA     BIT       PX01
      000000B8H.4 SFRSYM    DATA     BIT       PX10
      000000E1H   SFRSYM    DATA     BYTE      CMP_CR4
      000000F8H.2 SFRSYM    DATA     BIT       OISVH
      000000CBH   SFRSYM    DATA     BYTE      MDU_D
      000000B8H.5 SFRSYM    DATA     BIT       PX11
      000000F8H.4 SFRSYM    DATA     BIT       OISWH
      000000F8H.1 SFRSYM    DATA     BIT       OISUL
      000000A8H   SFRSYM    DATA     BYTE      IE
      000000F8H.3 SFRSYM    DATA     BIT       OISVL
      000000F9H   SFRSYM    DATA     BYTE      PI_CR
      000000F8H.5 SFRSYM    DATA     BIT       OISWL
      000000D8H   SFRSYM    DATA     BIT       PCMP30
      000000AAH   SFRSYM    DATA     WORD      TIM2__CNTR
      000000D8H.1 SFRSYM    DATA     BIT       PCMP31
      000000A2H   SFRSYM    DATA     WORD      TIM3__CNTR
      00000092H   SFRSYM    DATA     WORD      TIM4__CNTR
      00000098H   SFRSYM    DATA     BIT       RI
      00000098H.6 SFRSYM    DATA     BIT       UT_MOD0
      00000098H.7 SFRSYM    DATA     BIT       UT_MOD1
      000000D0H.7 SFRSYM    DATA     BIT       CY
      00000098H.1 SFRSYM    DATA     BIT       TI
      000000C0H.2 SFRSYM    DATA     BIT       PTIM10
      00000084H   SFRSYM    DATA     BYTE      FLA_KEY
      000000C0H   SFRSYM    DATA     BIT       PTIM20
      000000C0H.3 SFRSYM    DATA     BIT       PTIM11
      00000098H   SFRSYM    DATA     BYTE      UT_CR
      000000C8H.2 SFRSYM    DATA     BIT       PTIM30
      000000C0H.1 SFRSYM    DATA     BIT       PTIM21
      00000099H   SFRSYM    DATA     BYTE      UT_DR
      000000C8H.3 SFRSYM    DATA     BIT       PTIM31
      000000C8H.6 SFRSYM    DATA     BIT       PTIM40
      000000C8H.7 SFRSYM    DATA     BIT       PTIM41
      000000D0H.2 SFRSYM    DATA     BIT       OV
      0000009AH   SFRSYM    DATA     WORD      UT_BAUD
      000000D8H.4 SFRSYM    DATA     BIT       PSPI_UT20
      000000D8H.5 SFRSYM    DATA     BIT       PSPI_UT21
      000000C8H.4 SFRSYM    DATA     BIT       PSYSTICK0
      000000C8H.5 SFRSYM    DATA     BIT       PSYSTICK1
      00000087H   SFRSYM    DATA     BYTE      PCON
      00000088H   SFRSYM    DATA     BYTE      TCON
      00000082H   SFRSYM    DATA     WORD      DPTR
      00000088H.2 SFRSYM    DATA     BIT       IF0
      000000AEH   SFRSYM    DATA     WORD      TIM2__ARR
      000000A1H   SFRSYM    DATA     BYTE      TIM2_CR0
      000000A6H   SFRSYM    DATA     WORD      TIM3__ARR
      0000009CH   SFRSYM    DATA     BYTE      TIM3_CR0
      000000A9H   SFRSYM    DATA     BYTE      TIM2_CR1
      00000096H   SFRSYM    DATA     WORD      TIM4__ARR
      0000009EH   SFRSYM    DATA     BYTE      TIM4_CR0
      0000009DH   SFRSYM    DATA     BYTE      TIM3_CR1
      000000F8H   SFRSYM    DATA     BYTE      DRV_OUT
LX51 LINKER/LOCATER V4.66.30.0                                                        04/09/2024  13:54:58  PAGE 18


      0000009FH   SFRSYM    DATA     BYTE      TIM4_CR1
      000000E0H   SFRSYM    DATA     BYTE      ACC
      000000DBH   SFRSYM    DATA     BYTE      LVSR
      000000A8H.4 SFRSYM    DATA     BIT       ES0
      00000085H   SFRSYM    DATA     BYTE      FLA_CR
      000000C0H.4 SFRSYM    DATA     BIT       PADC0
      000000B8H   SFRSYM    DATA     BYTE      IP0
      000000C0H.5 SFRSYM    DATA     BIT       PADC1
      000000C0H   SFRSYM    DATA     BYTE      IP1
      000000C8H   SFRSYM    DATA     BYTE      IP2
      00000098H.2 SFRSYM    DATA     BIT       RB8
      000000D8H   SFRSYM    DATA     BYTE      IP3
      000000A8H   SFRSYM    DATA     BIT       EX0
      00000098H.3 SFRSYM    DATA     BIT       TB8
      000000A8H.2 SFRSYM    DATA     BIT       EX1
      000000D0H   SFRSYM    DATA     BIT       P
      0000008AH   SFRSYM    DATA     BYTE      UT2_CR
      00000089H   SFRSYM    DATA     BYTE      UT2_DR
      00000098H.5 SFRSYM    DATA     BIT       SM2
      000000D8H.6 SFRSYM    DATA     BIT       PDMA0
      000000D8H.7 SFRSYM    DATA     BIT       PDMA1
      000000D0H.3 SFRSYM    DATA     BIT       RS0
      000000D0H.4 SFRSYM    DATA     BIT       RS1
      000000CAH   SFRSYM    DATA     BYTE      MDU_MD
      000000C1H   SFRSYM    DATA     BYTE      MDU_CR
      000000F8H.7 SFRSYM    DATA     BIT       MOE
      000000C0H.6 SFRSYM    DATA     BIT       PCMP0
      000000C0H.7 SFRSYM    DATA     BIT       PCMP1
      00000098H.4 SFRSYM    DATA     BIT       REN
      000000D7H   SFRSYM    DATA     BYTE      CMP_SR
      000000C8H   SFRSYM    DATA     BIT       PRTC0
      000000C8H.1 SFRSYM    DATA     BIT       PRTC1
      000000B8H.6 SFRSYM    DATA     BIT       PDRV0
      000000B8H.7 SFRSYM    DATA     BIT       PDRV1
      000000D1H   SFRSYM    DATA     BYTE      P1_IE
      000000D3H   SFRSYM    DATA     BYTE      P2_IE
      000000D2H   SFRSYM    DATA     BYTE      P1_IF
      000000D4H   SFRSYM    DATA     BYTE      P2_IF
      000000ACH   SFRSYM    DATA     WORD      TIM2__DR
      000000FCH   SFRSYM    DATA     BYTE      P0_OE
      000000A4H   SFRSYM    DATA     WORD      TIM3__DR
      000000FDH   SFRSYM    DATA     BYTE      P1_OE
      00000094H   SFRSYM    DATA     WORD      TIM4__DR
      000000D0H.5 SFRSYM    DATA     BIT       F0
      000000FEH   SFRSYM    DATA     BYTE      P2_OE
      000000D0H.1 SFRSYM    DATA     BIT       F1
      000000FFH   SFRSYM    DATA     BYTE      P3_OE
      00000080H   SFRSYM    DATA     BIT       GP00
      000000E9H   SFRSYM    DATA     BYTE      P4_OE
      00000090H   SFRSYM    DATA     BIT       GP10
      00000080H.1 SFRSYM    DATA     BIT       GP01
      000000A8H.6 SFRSYM    DATA     BIT       RTCIE
      000000A0H   SFRSYM    DATA     BIT       GP20
      00000090H.1 SFRSYM    DATA     BIT       GP11
      00000080H.2 SFRSYM    DATA     BIT       GP02
      000000B0H   SFRSYM    DATA     BIT       GP30
      000000A0H.1 SFRSYM    DATA     BIT       GP21
      00000090H.2 SFRSYM    DATA     BIT       GP12
      00000080H.3 SFRSYM    DATA     BIT       GP03
      000000D8H.2 SFRSYM    DATA     BIT       PI2C_UT10
      000000B8H   SFRSYM    DATA     BIT       PLVW0
      000000A8H.1 SFRSYM    DATA     BIT       TSDIE
      000000D0H   SFRSYM    DATA     BYTE      PSW
      000000B0H.1 SFRSYM    DATA     BIT       GP31
      000000A0H.2 SFRSYM    DATA     BIT       GP22
LX51 LINKER/LOCATER V4.66.30.0                                                        04/09/2024  13:54:58  PAGE 19


      00000090H.3 SFRSYM    DATA     BIT       GP13
      00000080H.4 SFRSYM    DATA     BIT       GP04
      000000D8H.3 SFRSYM    DATA     BIT       PI2C_UT11
      000000B8H.1 SFRSYM    DATA     BIT       PLVW1
      000000A8H.3 SFRSYM    DATA     BIT       SPIIE
      00000088H.5 SFRSYM    DATA     BIT       TSDIF
      000000B0H.2 SFRSYM    DATA     BIT       GP32
      000000A0H.3 SFRSYM    DATA     BIT       GP23
      00000090H.4 SFRSYM    DATA     BIT       GP14
      00000080H.5 SFRSYM    DATA     BIT       GP05
      000000E8H.2 SFRSYM    DATA     BIT       GP42
      000000B0H.3 SFRSYM    DATA     BIT       GP33
      000000A0H.4 SFRSYM    DATA     BIT       GP24
      00000090H.5 SFRSYM    DATA     BIT       GP15
      00000080H.6 SFRSYM    DATA     BIT       GP06
      00000088H   SFRSYM    DATA     BIT       IT00

      01000A16H   BLOCK     CODE     ---       LVL=0
      01000A16H   LINE      CODE     ---       #103
      01000A16H   LINE      CODE     ---       #104
      01000A16H   LINE      CODE     ---       #105
      01000A27H   LINE      CODE     ---       #106
      01000A27H   LINE      CODE     ---       #107
      01000A42H   LINE      CODE     ---       #108
      01000A42H   LINE      CODE     ---       #109
      01000A42H   LINE      CODE     ---       #110
      01000A42H   LINE      CODE     ---       #111
      01000A4AH   LINE      CODE     ---       #112
      01000A4AH   LINE      CODE     ---       #113
      01000A60H   LINE      CODE     ---       #114
      01000A60H   LINE      CODE     ---       #115
      01000A68H   LINE      CODE     ---       #117
      01000A77H   LINE      CODE     ---       #118
      01000A8DH   LINE      CODE     ---       #119
      01000A8DH   LINE      CODE     ---       #120
      01000A99H   LINE      CODE     ---       #121
      01000AA6H   LINE      CODE     ---       #122
      01000AAEH   LINE      CODE     ---       #123
      01000AB8H   LINE      CODE     ---       #124
      01000AB8H   LINE      CODE     ---       #125
      01000AB8H   LINE      CODE     ---       #126
      01000AB8H   LINE      CODE     ---       #127
      01000ACCH   LINE      CODE     ---       #128
      01000ACCH   LINE      CODE     ---       #129
      01000AD3H   LINE      CODE     ---       #130
      01000AD7H   LINE      CODE     ---       #131
      01000ADBH   LINE      CODE     ---       #132
      01000AE5H   LINE      CODE     ---       #133
      01000AE5H   LINE      CODE     ---       #134
      01000AECH   LINE      CODE     ---       #135
      01000AECH   LINE      CODE     ---       #137
      01000AECH   LINE      CODE     ---       #138
      01000AF2H   LINE      CODE     ---       #139
      01000AF2H   LINE      CODE     ---       #140
      01000AF5H   LINE      CODE     ---       #141
      01000AF7H   LINE      CODE     ---       #143
      01000AF7H   LINE      CODE     ---       #144
      01000AFCH   LINE      CODE     ---       #145
      01000B0BH   LINE      CODE     ---       #146
      01000B0BH   LINE      CODE     ---       #148
      01000B0BH   LINE      CODE     ---       #151
      01000B11H   LINE      CODE     ---       #152
      01000B11H   LINE      CODE     ---       #153
      01000B14H   LINE      CODE     ---       #154
      01000B16H   LINE      CODE     ---       #156
LX51 LINKER/LOCATER V4.66.30.0                                                        04/09/2024  13:54:58  PAGE 20


      01000B16H   LINE      CODE     ---       #157
      01000B25H   LINE      CODE     ---       #158
      01000B25H   LINE      CODE     ---       #159
      01000B2FH   LINE      CODE     ---       #160
      01000B31H   LINE      CODE     ---       #161
      01000B3BH   LINE      CODE     ---       #162
      01000B3BH   LINE      CODE     ---       #163
      01000B42H   LINE      CODE     ---       #164
      01000B44H   LINE      CODE     ---       #166
      01000B44H   LINE      CODE     ---       #167
      01000B4BH   LINE      CODE     ---       #168
      01000B4BH   LINE      CODE     ---       #169
      01000B4BH   LINE      CODE     ---       #170
      01000B5BH   LINE      CODE     ---       #171
      01000B63H   LINE      CODE     ---       #172
      01000B6BH   LINE      CODE     ---       #173
      01000B73H   LINE      CODE     ---       #174
      01000B7BH   LINE      CODE     ---       #175
      01000B82H   LINE      CODE     ---       #176
      01000B82H   LINE      CODE     ---       #177
      01000B82H   LINE      CODE     ---       #178
      01000B85H   LINE      CODE     ---       #179
      01000B85H   LINE      CODE     ---       #180
      01000B85H   LINE      CODE     ---       #181
      01000B93H   LINE      CODE     ---       #182
      01000BA5H   LINE      CODE     ---       #183
      01000BA5H   LINE      CODE     ---       #184
      01000BA9H   LINE      CODE     ---       #209
      01000BA9H   LINE      CODE     ---       #211
      01000BB8H   LINE      CODE     ---       #212
      01000BB8H   LINE      CODE     ---       #213
      01000BC0H   LINE      CODE     ---       #214
      01000BCAH   LINE      CODE     ---       #215
      01000BD1H   LINE      CODE     ---       #216
      01000BDBH   LINE      CODE     ---       #217
      01000BE3H   LINE      CODE     ---       #218
      01000BECH   LINE      CODE     ---       #219
      01000BECH   LINE      CODE     ---       #220
      01000BECH   LINE      CODE     ---       #221
      01000BECH   LINE      CODE     ---       #223
      01000BECH   LINE      CODE     ---       #224
      01000BF5H   LINE      CODE     ---       #225
      01000BF5H   LINE      CODE     ---       #238
      01000C09H   LINE      CODE     ---       #239
      01000C09H   LINE      CODE     ---       #240
      01000C11H   LINE      CODE     ---       #241
      01000C13H   LINE      CODE     ---       #243
      01000C13H   LINE      CODE     ---       #244
      01000C1AH   LINE      CODE     ---       #245
      01000C1AH   LINE      CODE     ---       #246
      01000C2EH   LINE      CODE     ---       #247
      01000C2EH   LINE      CODE     ---       #248
      01000C36H   LINE      CODE     ---       #249
      01000C38H   LINE      CODE     ---       #251
      01000C38H   LINE      CODE     ---       #252
      01000C3FH   LINE      CODE     ---       #253
      01000C3FH   LINE      CODE     ---       #254
      01000C4EH   LINE      CODE     ---       #255
      01000C5DH   LINE      CODE     ---       #257
      01000C5FH   LINE      CODE     ---       #258
      01000C6EH   LINE      CODE     ---       #259
      01000C6EH   LINE      CODE     ---       #260
      01000C7AH   LINE      CODE     ---       #261
      01000C7AH   LINE      CODE     ---       #262
      01000C8EH   LINE      CODE     ---       #263
LX51 LINKER/LOCATER V4.66.30.0                                                        04/09/2024  13:54:58  PAGE 21


      01000C8EH   LINE      CODE     ---       #264
      01000C95H   LINE      CODE     ---       #265
      01000CA0H   LINE      CODE     ---       #266
      01000CA2H   LINE      CODE     ---       #268
      01000CA2H   LINE      CODE     ---       #269
      01000CA9H   LINE      CODE     ---       #270
      01000CB1H   LINE      CODE     ---       #271
      01000CB1H   LINE      CODE     ---       #273
      01000CB6H   LINE      CODE     ---       #274
      01000CB8H   LINE      CODE     ---       #276
      01000CBFH   LINE      CODE     ---       #277
      01000CBFH   LINE      CODE     ---       #279
      01000CCEH   LINE      CODE     ---       #280
      01000CCEH   LINE      CODE     ---       #281
      01000CCEH   LINE      CODE     ---       #282
      01000CCEH   LINE      CODE     ---       #283
      01000CD0H   LINE      CODE     ---       #284
      01000CD4H   LINE      CODE     ---       #285
      01000CD4H   LINE      CODE     ---       #287
      01000CE3H   LINE      CODE     ---       #288
      01000CE3H   LINE      CODE     ---       #289
      01000CEDH   LINE      CODE     ---       #290
      01000CEDH   LINE      CODE     ---       #291
      01000CEDH   LINE      CODE     ---       #294
      01000CF6H   LINE      CODE     ---       #295
      01000D16H   LINE      CODE     ---       #296
      01000D16H   LINE      CODE     ---       #298
      01000D16H   LINE      CODE     ---       #299
      01000D16H   LINE      CODE     ---       #300
      01000D16H   LINE      CODE     ---       #301
      01000D16H   LINE      CODE     ---       #302
      01000D16H   LINE      CODE     ---       #303
      01000D1DH   LINE      CODE     ---       #304
      01000D1DH   LINE      CODE     ---       #305
      01000D2CH   LINE      CODE     ---       #306
      01000D2CH   LINE      CODE     ---       #307
      01000D38H   LINE      CODE     ---       #308
      01000D39H   LINE      CODE     ---       #310
      01000D39H   LINE      CODE     ---       #311
      01000D3EH   LINE      CODE     ---       #312
      01000D3EH   LINE      CODE     ---       #313
      01000D3EH   LINE      CODE     ---       #314
      ---         BLOCKEND  ---      ---       LVL=0

      01002819H   BLOCK     CODE     ---       LVL=0
      01002819H   BLOCK     CODE     NEAR LAB  LVL=1
      02000000H   SYMBOL    XDATA    WORD      prev_Target
      ---         BLOCKEND  ---      ---       LVL=1
      01002819H   LINE      CODE     ---       #322
      01002819H   LINE      CODE     ---       #323
      01002819H   LINE      CODE     ---       #325
      0100284AH   LINE      CODE     ---       #326
      0100284AH   LINE      CODE     ---       #327
      01002864H   LINE      CODE     ---       #328
      01002864H   LINE      CODE     ---       #329
      01002878H   LINE      CODE     ---       #330
      01002887H   LINE      CODE     ---       #331
      01002887H   LINE      CODE     ---       #332
      01002887H   LINE      CODE     ---       #333
      ---         BLOCKEND  ---      ---       LVL=0

      010006A4H   BLOCK     CODE     ---       LVL=0
      02000217H   SYMBOL    XDATA    ---       hSpeedramp
      010006A4H   LINE      CODE     ---       #340
      010006AFH   LINE      CODE     ---       #341
LX51 LINKER/LOCATER V4.66.30.0                                                        04/09/2024  13:54:58  PAGE 22


      010006AFH   LINE      CODE     ---       #344
      010006CDH   LINE      CODE     ---       #345
      010006CDH   LINE      CODE     ---       #363
      010006E7H   LINE      CODE     ---       #364
      010006E7H   LINE      CODE     ---       #365
      010006F9H   LINE      CODE     ---       #366
      010006FCH   LINE      CODE     ---       #367
      0100071DH   LINE      CODE     ---       #368
      0100071DH   LINE      CODE     ---       #369
      0100072FH   LINE      CODE     ---       #370
      01000732H   LINE      CODE     ---       #371
      0100074CH   LINE      CODE     ---       #372
      0100074CH   LINE      CODE     ---       #373
      0100075EH   LINE      CODE     ---       #374
      01000761H   LINE      CODE     ---       #375
      01000782H   LINE      CODE     ---       #376
      01000782H   LINE      CODE     ---       #377
      01000794H   LINE      CODE     ---       #378
      01000797H   LINE      CODE     ---       #379
      010007B1H   LINE      CODE     ---       #380
      010007B1H   LINE      CODE     ---       #381
      010007C3H   LINE      CODE     ---       #382
      010007C6H   LINE      CODE     ---       #383
      010007E7H   LINE      CODE     ---       #384
      010007E7H   LINE      CODE     ---       #385
      010007F9H   LINE      CODE     ---       #386
      010007FBH   LINE      CODE     ---       #387
      01000815H   LINE      CODE     ---       #388
      01000815H   LINE      CODE     ---       #389
      01000827H   LINE      CODE     ---       #390
      01000829H   LINE      CODE     ---       #391
      0100084EH   LINE      CODE     ---       #392
      0100084EH   LINE      CODE     ---       #393
      0100085BH   LINE      CODE     ---       #394
      0100085DH   LINE      CODE     ---       #396
      0100085DH   LINE      CODE     ---       #397
      0100086DH   LINE      CODE     ---       #398
      0100086DH   LINE      CODE     ---       #401
      0100086DH   LINE      CODE     ---       #402
      0100088FH   LINE      CODE     ---       #403
      0100088FH   LINE      CODE     ---       #408
      010008B7H   LINE      CODE     ---       #409
      010008B7H   LINE      CODE     ---       #410
      010008D3H   LINE      CODE     ---       #411
      010008D3H   LINE      CODE     ---       #412
      010008FBH   LINE      CODE     ---       #413
      010008FBH   LINE      CODE     ---       #414
      01000906H   LINE      CODE     ---       #415
      01000909H   LINE      CODE     ---       #417
      01000909H   LINE      CODE     ---       #419
      01000909H   LINE      CODE     ---       #420
      01000909H   LINE      CODE     ---       #422
      01000909H   LINE      CODE     ---       #423
      01000936H   LINE      CODE     ---       #424
      01000936H   LINE      CODE     ---       #425
      0100093DH   LINE      CODE     ---       #426
      0100093FH   LINE      CODE     ---       #427
      0100094AH   LINE      CODE     ---       #428
      0100094AH   LINE      CODE     ---       #429
      01000951H   LINE      CODE     ---       #430
      01000953H   LINE      CODE     ---       #431
      0100095CH   LINE      CODE     ---       #432
      0100095CH   LINE      CODE     ---       #433
      0100095CH   LINE      CODE     ---       #434
      0100095CH   LINE      CODE     ---       #436
LX51 LINKER/LOCATER V4.66.30.0                                                        04/09/2024  13:54:58  PAGE 23


      0100095CH   LINE      CODE     ---       #437
      01000966H   LINE      CODE     ---       #438
      01000966H   LINE      CODE     ---       #442
      010009B5H   LINE      CODE     ---       #443
      010009B5H   LINE      CODE     ---       #444
      010009EBH   LINE      CODE     ---       #445
      010009EBH   LINE      CODE     ---       #446
      01000A0CH   LINE      CODE     ---       #447
      01000A0CH   LINE      CODE     ---       #448
      01000A15H   LINE      CODE     ---       #449
      01000A15H   LINE      CODE     ---       #451
      01000A15H   LINE      CODE     ---       #453
      01000A15H   LINE      CODE     ---       #454
      01000A15H   LINE      CODE     ---       #456
      ---         BLOCKEND  ---      ---       LVL=0

      01003035H   BLOCK     CODE     ---       LVL=0
      00000006H   SYMBOL    DATA     INT       Xn1
      01003035H   LINE      CODE     ---       #464
      01003035H   LINE      CODE     ---       #465
      01003035H   LINE      CODE     ---       #467
      0100303DH   LINE      CODE     ---       #468
      01003040H   LINE      CODE     ---       #469
      01003045H   LINE      CODE     ---       #470
      0100304DH   LINE      CODE     ---       #471
      ---         BLOCKEND  ---      ---       LVL=0

      01002688H   BLOCK     CODE     ---       LVL=0
      01002688H   LINE      CODE     ---       #480
      01002688H   LINE      CODE     ---       #481
      01002688H   LINE      CODE     ---       #482
      01002690H   LINE      CODE     ---       #483
      01002690H   LINE      CODE     ---       #484
      0100269EH   LINE      CODE     ---       #485
      0100269EH   LINE      CODE     ---       #486
      010026A8H   LINE      CODE     ---       #487
      010026AFH   LINE      CODE     ---       #488
      010026B0H   LINE      CODE     ---       #489
      010026B6H   LINE      CODE     ---       #490
      010026B6H   LINE      CODE     ---       #491
      010026C0H   LINE      CODE     ---       #492
      010026C7H   LINE      CODE     ---       #493
      010026C8H   LINE      CODE     ---       #494
      010026CEH   LINE      CODE     ---       #495
      010026CEH   LINE      CODE     ---       #496
      010026D8H   LINE      CODE     ---       #497
      010026DFH   LINE      CODE     ---       #498
      010026E0H   LINE      CODE     ---       #499
      010026E6H   LINE      CODE     ---       #500
      010026E6H   LINE      CODE     ---       #501
      010026F0H   LINE      CODE     ---       #502
      010026F7H   LINE      CODE     ---       #503
      010026F8H   LINE      CODE     ---       #504
      010026FEH   LINE      CODE     ---       #505
      010026FEH   LINE      CODE     ---       #506
      01002708H   LINE      CODE     ---       #507
      0100270FH   LINE      CODE     ---       #508
      0100270FH   LINE      CODE     ---       #510
      0100270FH   LINE      CODE     ---       #512
      0100270FH   LINE      CODE     ---       #513
      0100270FH   LINE      CODE     ---       #514
      ---         BLOCKEND  ---      ---       LVL=0

      ---         MODULE    ---      ---       TURBOFANFUNCTION
      020001DBH   PUBLIC    XDATA    ---       c_TurboFan
LX51 LINKER/LOCATER V4.66.30.0                                                        04/09/2024  13:54:58  PAGE 24


      000000E8H.3 SFRSYM    DATA     BIT       GP43
      000000B0H.4 SFRSYM    DATA     BIT       GP34
      000000A0H.5 SFRSYM    DATA     BIT       GP25
      00000090H.6 SFRSYM    DATA     BIT       GP16
      00000080H.7 SFRSYM    DATA     BIT       GP07
      00000088H.1 SFRSYM    DATA     BIT       IT01
      00000088H.3 SFRSYM    DATA     BIT       IT10
      000000E8H.4 SFRSYM    DATA     BIT       GP44
      000000B0H.5 SFRSYM    DATA     BIT       GP35
      000000A0H.6 SFRSYM    DATA     BIT       GP26
      00000090H.7 SFRSYM    DATA     BIT       GP17
      00000080H   SFRSYM    DATA     BYTE      P0
      00000088H.4 SFRSYM    DATA     BIT       IT11
      000000C9H   SFRSYM    DATA     BYTE      RST_SR
      000000D9H   SFRSYM    DATA     BYTE      EVT_FILT
      000000E8H.5 SFRSYM    DATA     BIT       GP45
      000000B0H.6 SFRSYM    DATA     BIT       GP36
      000000A0H.7 SFRSYM    DATA     BIT       GP27
      00000090H   SFRSYM    DATA     BYTE      P1
      000000B0H.7 SFRSYM    DATA     BIT       GP37
      000000A0H   SFRSYM    DATA     BYTE      P2
      000000B0H   SFRSYM    DATA     BYTE      P3
      000000E8H   SFRSYM    DATA     BYTE      P4
      000000D0H.6 SFRSYM    DATA     BIT       AC
      000000A8H.7 SFRSYM    DATA     BIT       EA
      000000D5H   SFRSYM    DATA     BYTE      CMP_CR0
      000000D6H   SFRSYM    DATA     BYTE      CMP_CR1
      000000C6H   SFRSYM    DATA     WORD      MDU_A
      000000DAH   SFRSYM    DATA     BYTE      CMP_CR2
      000000C4H   SFRSYM    DATA     WORD      MDU_B
      000000B8H.2 SFRSYM    DATA     BIT       PX00
      000000DCH   SFRSYM    DATA     BYTE      CMP_CR3
      000000F8H   SFRSYM    DATA     BIT       OISUH
      000000C2H   SFRSYM    DATA     WORD      MDU_C
      000000B8H.3 SFRSYM    DATA     BIT       PX01
      000000B8H.4 SFRSYM    DATA     BIT       PX10
      000000E1H   SFRSYM    DATA     BYTE      CMP_CR4
      000000F8H.2 SFRSYM    DATA     BIT       OISVH
      000000CBH   SFRSYM    DATA     BYTE      MDU_D
      000000B8H.5 SFRSYM    DATA     BIT       PX11
      000000F8H.4 SFRSYM    DATA     BIT       OISWH
      000000F8H.1 SFRSYM    DATA     BIT       OISUL
      000000A8H   SFRSYM    DATA     BYTE      IE
      000000F8H.3 SFRSYM    DATA     BIT       OISVL
      000000F9H   SFRSYM    DATA     BYTE      PI_CR
      000000F8H.5 SFRSYM    DATA     BIT       OISWL
      000000D8H   SFRSYM    DATA     BIT       PCMP30
      000000AAH   SFRSYM    DATA     WORD      TIM2__CNTR
      000000D8H.1 SFRSYM    DATA     BIT       PCMP31
      000000A2H   SFRSYM    DATA     WORD      TIM3__CNTR
      00000092H   SFRSYM    DATA     WORD      TIM4__CNTR
      00000098H   SFRSYM    DATA     BIT       RI
      00000098H.6 SFRSYM    DATA     BIT       UT_MOD0
      00000098H.7 SFRSYM    DATA     BIT       UT_MOD1
      000000D0H.7 SFRSYM    DATA     BIT       CY
      00000098H.1 SFRSYM    DATA     BIT       TI
      000000C0H.2 SFRSYM    DATA     BIT       PTIM10
      00000084H   SFRSYM    DATA     BYTE      FLA_KEY
      000000C0H   SFRSYM    DATA     BIT       PTIM20
      000000C0H.3 SFRSYM    DATA     BIT       PTIM11
      00000098H   SFRSYM    DATA     BYTE      UT_CR
      000000C8H.2 SFRSYM    DATA     BIT       PTIM30
      000000C0H.1 SFRSYM    DATA     BIT       PTIM21
      00000099H   SFRSYM    DATA     BYTE      UT_DR
      000000C8H.3 SFRSYM    DATA     BIT       PTIM31
LX51 LINKER/LOCATER V4.66.30.0                                                        04/09/2024  13:54:58  PAGE 25


      000000C8H.6 SFRSYM    DATA     BIT       PTIM40
      000000C8H.7 SFRSYM    DATA     BIT       PTIM41
      000000D0H.2 SFRSYM    DATA     BIT       OV
      0000009AH   SFRSYM    DATA     WORD      UT_BAUD
      000000D8H.4 SFRSYM    DATA     BIT       PSPI_UT20
      000000D8H.5 SFRSYM    DATA     BIT       PSPI_UT21
      000000C8H.4 SFRSYM    DATA     BIT       PSYSTICK0
      000000C8H.5 SFRSYM    DATA     BIT       PSYSTICK1
      00000087H   SFRSYM    DATA     BYTE      PCON
      00000088H   SFRSYM    DATA     BYTE      TCON
      00000082H   SFRSYM    DATA     WORD      DPTR
      00000088H.2 SFRSYM    DATA     BIT       IF0
      000000AEH   SFRSYM    DATA     WORD      TIM2__ARR
      000000A1H   SFRSYM    DATA     BYTE      TIM2_CR0
      000000A6H   SFRSYM    DATA     WORD      TIM3__ARR
      0000009CH   SFRSYM    DATA     BYTE      TIM3_CR0
      000000A9H   SFRSYM    DATA     BYTE      TIM2_CR1
      00000096H   SFRSYM    DATA     WORD      TIM4__ARR
      0000009EH   SFRSYM    DATA     BYTE      TIM4_CR0
      0000009DH   SFRSYM    DATA     BYTE      TIM3_CR1
      000000F8H   SFRSYM    DATA     BYTE      DRV_OUT
      0000009FH   SFRSYM    DATA     BYTE      TIM4_CR1
      000000E0H   SFRSYM    DATA     BYTE      ACC
      000000DBH   SFRSYM    DATA     BYTE      LVSR
      000000A8H.4 SFRSYM    DATA     BIT       ES0
      00000085H   SFRSYM    DATA     BYTE      FLA_CR
      000000C0H.4 SFRSYM    DATA     BIT       PADC0
      000000B8H   SFRSYM    DATA     BYTE      IP0
      000000C0H.5 SFRSYM    DATA     BIT       PADC1
      000000C0H   SFRSYM    DATA     BYTE      IP1
      000000C8H   SFRSYM    DATA     BYTE      IP2
      00000098H.2 SFRSYM    DATA     BIT       RB8
      000000D8H   SFRSYM    DATA     BYTE      IP3
      000000A8H   SFRSYM    DATA     BIT       EX0
      00000098H.3 SFRSYM    DATA     BIT       TB8
      000000A8H.2 SFRSYM    DATA     BIT       EX1
      000000D0H   SFRSYM    DATA     BIT       P
      0000008AH   SFRSYM    DATA     BYTE      UT2_CR
      00000089H   SFRSYM    DATA     BYTE      UT2_DR
      00000098H.5 SFRSYM    DATA     BIT       SM2
      000000D8H.6 SFRSYM    DATA     BIT       PDMA0
      000000D8H.7 SFRSYM    DATA     BIT       PDMA1
      000000D0H.3 SFRSYM    DATA     BIT       RS0
      000000D0H.4 SFRSYM    DATA     BIT       RS1
      000000CAH   SFRSYM    DATA     BYTE      MDU_MD
      000000C1H   SFRSYM    DATA     BYTE      MDU_CR
      000000F8H.7 SFRSYM    DATA     BIT       MOE
      000000C0H.6 SFRSYM    DATA     BIT       PCMP0
      000000C0H.7 SFRSYM    DATA     BIT       PCMP1
      00000098H.4 SFRSYM    DATA     BIT       REN
      000000D7H   SFRSYM    DATA     BYTE      CMP_SR
      000000C8H   SFRSYM    DATA     BIT       PRTC0
      000000C8H.1 SFRSYM    DATA     BIT       PRTC1
      000000B8H.6 SFRSYM    DATA     BIT       PDRV0
      000000B8H.7 SFRSYM    DATA     BIT       PDRV1
      000000D1H   SFRSYM    DATA     BYTE      P1_IE
      000000D3H   SFRSYM    DATA     BYTE      P2_IE
      000000D2H   SFRSYM    DATA     BYTE      P1_IF
      000000D4H   SFRSYM    DATA     BYTE      P2_IF
      000000ACH   SFRSYM    DATA     WORD      TIM2__DR
      000000FCH   SFRSYM    DATA     BYTE      P0_OE
      000000A4H   SFRSYM    DATA     WORD      TIM3__DR
      000000FDH   SFRSYM    DATA     BYTE      P1_OE
      00000094H   SFRSYM    DATA     WORD      TIM4__DR
      000000D0H.5 SFRSYM    DATA     BIT       F0
LX51 LINKER/LOCATER V4.66.30.0                                                        04/09/2024  13:54:58  PAGE 26


      000000FEH   SFRSYM    DATA     BYTE      P2_OE
      000000D0H.1 SFRSYM    DATA     BIT       F1
      000000FFH   SFRSYM    DATA     BYTE      P3_OE
      00000080H   SFRSYM    DATA     BIT       GP00
      000000E9H   SFRSYM    DATA     BYTE      P4_OE
      00000090H   SFRSYM    DATA     BIT       GP10
      00000080H.1 SFRSYM    DATA     BIT       GP01
      000000A8H.6 SFRSYM    DATA     BIT       RTCIE
      000000A0H   SFRSYM    DATA     BIT       GP20
      00000090H.1 SFRSYM    DATA     BIT       GP11
      00000080H.2 SFRSYM    DATA     BIT       GP02
      000000B0H   SFRSYM    DATA     BIT       GP30
      000000A0H.1 SFRSYM    DATA     BIT       GP21
      00000090H.2 SFRSYM    DATA     BIT       GP12
      00000080H.3 SFRSYM    DATA     BIT       GP03
      000000D8H.2 SFRSYM    DATA     BIT       PI2C_UT10
      000000B8H   SFRSYM    DATA     BIT       PLVW0
      000000A8H.1 SFRSYM    DATA     BIT       TSDIE
      000000D0H   SFRSYM    DATA     BYTE      PSW
      000000B0H.1 SFRSYM    DATA     BIT       GP31
      000000A0H.2 SFRSYM    DATA     BIT       GP22
      00000090H.3 SFRSYM    DATA     BIT       GP13
      00000080H.4 SFRSYM    DATA     BIT       GP04
      000000D8H.3 SFRSYM    DATA     BIT       PI2C_UT11
      000000B8H.1 SFRSYM    DATA     BIT       PLVW1
      000000A8H.3 SFRSYM    DATA     BIT       SPIIE
      00000088H.5 SFRSYM    DATA     BIT       TSDIF
      000000B0H.2 SFRSYM    DATA     BIT       GP32
      000000A0H.3 SFRSYM    DATA     BIT       GP23
      00000090H.4 SFRSYM    DATA     BIT       GP14
      00000080H.5 SFRSYM    DATA     BIT       GP05
      000000E8H.2 SFRSYM    DATA     BIT       GP42
      000000B0H.3 SFRSYM    DATA     BIT       GP33
      000000A0H.4 SFRSYM    DATA     BIT       GP24
      00000090H.5 SFRSYM    DATA     BIT       GP15
      00000080H.6 SFRSYM    DATA     BIT       GP06
      00000088H   SFRSYM    DATA     BIT       IT00

      ---         MODULE    ---      ---       HPFCOL_FUNCTION
      020001F3H   PUBLIC    XDATA    ---       HPFCOL
      000000E8H.3 SFRSYM    DATA     BIT       GP43
      000000B0H.4 SFRSYM    DATA     BIT       GP34
      000000A0H.5 SFRSYM    DATA     BIT       GP25
      00000090H.6 SFRSYM    DATA     BIT       GP16
      00000080H.7 SFRSYM    DATA     BIT       GP07
      00000088H.1 SFRSYM    DATA     BIT       IT01
      00000088H.3 SFRSYM    DATA     BIT       IT10
      000000E8H.4 SFRSYM    DATA     BIT       GP44
      000000B0H.5 SFRSYM    DATA     BIT       GP35
      000000A0H.6 SFRSYM    DATA     BIT       GP26
      00000090H.7 SFRSYM    DATA     BIT       GP17
      00000080H   SFRSYM    DATA     BYTE      P0
      00000088H.4 SFRSYM    DATA     BIT       IT11
      000000C9H   SFRSYM    DATA     BYTE      RST_SR
      000000D9H   SFRSYM    DATA     BYTE      EVT_FILT
      000000E8H.5 SFRSYM    DATA     BIT       GP45
      000000B0H.6 SFRSYM    DATA     BIT       GP36
      000000A0H.7 SFRSYM    DATA     BIT       GP27
      00000090H   SFRSYM    DATA     BYTE      P1
      000000B0H.7 SFRSYM    DATA     BIT       GP37
      000000A0H   SFRSYM    DATA     BYTE      P2
      000000B0H   SFRSYM    DATA     BYTE      P3
      000000E8H   SFRSYM    DATA     BYTE      P4
      000000D0H.6 SFRSYM    DATA     BIT       AC
      000000A8H.7 SFRSYM    DATA     BIT       EA
LX51 LINKER/LOCATER V4.66.30.0                                                        04/09/2024  13:54:58  PAGE 27


      000000D5H   SFRSYM    DATA     BYTE      CMP_CR0
      000000D6H   SFRSYM    DATA     BYTE      CMP_CR1
      000000C6H   SFRSYM    DATA     WORD      MDU_A
      000000DAH   SFRSYM    DATA     BYTE      CMP_CR2
      000000C4H   SFRSYM    DATA     WORD      MDU_B
      000000B8H.2 SFRSYM    DATA     BIT       PX00
      000000DCH   SFRSYM    DATA     BYTE      CMP_CR3
      000000F8H   SFRSYM    DATA     BIT       OISUH
      000000C2H   SFRSYM    DATA     WORD      MDU_C
      000000B8H.3 SFRSYM    DATA     BIT       PX01
      000000B8H.4 SFRSYM    DATA     BIT       PX10
      000000E1H   SFRSYM    DATA     BYTE      CMP_CR4
      000000F8H.2 SFRSYM    DATA     BIT       OISVH
      000000CBH   SFRSYM    DATA     BYTE      MDU_D
      000000B8H.5 SFRSYM    DATA     BIT       PX11
      000000F8H.4 SFRSYM    DATA     BIT       OISWH
      000000F8H.1 SFRSYM    DATA     BIT       OISUL
      000000A8H   SFRSYM    DATA     BYTE      IE
      000000F8H.3 SFRSYM    DATA     BIT       OISVL
      000000F9H   SFRSYM    DATA     BYTE      PI_CR
      000000F8H.5 SFRSYM    DATA     BIT       OISWL
      000000D8H   SFRSYM    DATA     BIT       PCMP30
      000000AAH   SFRSYM    DATA     WORD      TIM2__CNTR
      000000D8H.1 SFRSYM    DATA     BIT       PCMP31
      000000A2H   SFRSYM    DATA     WORD      TIM3__CNTR
      00000092H   SFRSYM    DATA     WORD      TIM4__CNTR
      00000098H   SFRSYM    DATA     BIT       RI
      00000098H.6 SFRSYM    DATA     BIT       UT_MOD0
      00000098H.7 SFRSYM    DATA     BIT       UT_MOD1
      000000D0H.7 SFRSYM    DATA     BIT       CY
      00000098H.1 SFRSYM    DATA     BIT       TI
      000000C0H.2 SFRSYM    DATA     BIT       PTIM10
      00000084H   SFRSYM    DATA     BYTE      FLA_KEY
      000000C0H   SFRSYM    DATA     BIT       PTIM20
      000000C0H.3 SFRSYM    DATA     BIT       PTIM11
      00000098H   SFRSYM    DATA     BYTE      UT_CR
      000000C8H.2 SFRSYM    DATA     BIT       PTIM30
      000000C0H.1 SFRSYM    DATA     BIT       PTIM21
      00000099H   SFRSYM    DATA     BYTE      UT_DR
      000000C8H.3 SFRSYM    DATA     BIT       PTIM31
      000000C8H.6 SFRSYM    DATA     BIT       PTIM40
      000000C8H.7 SFRSYM    DATA     BIT       PTIM41
      000000D0H.2 SFRSYM    DATA     BIT       OV
      0000009AH   SFRSYM    DATA     WORD      UT_BAUD
      000000D8H.4 SFRSYM    DATA     BIT       PSPI_UT20
      000000D8H.5 SFRSYM    DATA     BIT       PSPI_UT21
      000000C8H.4 SFRSYM    DATA     BIT       PSYSTICK0
      000000C8H.5 SFRSYM    DATA     BIT       PSYSTICK1
      00000087H   SFRSYM    DATA     BYTE      PCON
      00000088H   SFRSYM    DATA     BYTE      TCON
      00000082H   SFRSYM    DATA     WORD      DPTR
      00000088H.2 SFRSYM    DATA     BIT       IF0
      000000AEH   SFRSYM    DATA     WORD      TIM2__ARR
      000000A1H   SFRSYM    DATA     BYTE      TIM2_CR0
      000000A6H   SFRSYM    DATA     WORD      TIM3__ARR
      0000009CH   SFRSYM    DATA     BYTE      TIM3_CR0
      000000A9H   SFRSYM    DATA     BYTE      TIM2_CR1
      00000096H   SFRSYM    DATA     WORD      TIM4__ARR
      0000009EH   SFRSYM    DATA     BYTE      TIM4_CR0
      0000009DH   SFRSYM    DATA     BYTE      TIM3_CR1
      000000F8H   SFRSYM    DATA     BYTE      DRV_OUT
      0000009FH   SFRSYM    DATA     BYTE      TIM4_CR1
      000000E0H   SFRSYM    DATA     BYTE      ACC
      000000DBH   SFRSYM    DATA     BYTE      LVSR
      000000A8H.4 SFRSYM    DATA     BIT       ES0
LX51 LINKER/LOCATER V4.66.30.0                                                        04/09/2024  13:54:58  PAGE 28


      00000085H   SFRSYM    DATA     BYTE      FLA_CR
      000000C0H.4 SFRSYM    DATA     BIT       PADC0
      000000B8H   SFRSYM    DATA     BYTE      IP0
      000000C0H.5 SFRSYM    DATA     BIT       PADC1
      000000C0H   SFRSYM    DATA     BYTE      IP1
      000000C8H   SFRSYM    DATA     BYTE      IP2
      00000098H.2 SFRSYM    DATA     BIT       RB8
      000000D8H   SFRSYM    DATA     BYTE      IP3
      000000A8H   SFRSYM    DATA     BIT       EX0
      00000098H.3 SFRSYM    DATA     BIT       TB8
      000000A8H.2 SFRSYM    DATA     BIT       EX1
      000000D0H   SFRSYM    DATA     BIT       P
      0000008AH   SFRSYM    DATA     BYTE      UT2_CR
      00000089H   SFRSYM    DATA     BYTE      UT2_DR
      00000098H.5 SFRSYM    DATA     BIT       SM2
      000000D8H.6 SFRSYM    DATA     BIT       PDMA0
      000000D8H.7 SFRSYM    DATA     BIT       PDMA1
      000000D0H.3 SFRSYM    DATA     BIT       RS0
      000000D0H.4 SFRSYM    DATA     BIT       RS1
      000000CAH   SFRSYM    DATA     BYTE      MDU_MD
      000000C1H   SFRSYM    DATA     BYTE      MDU_CR
      000000F8H.7 SFRSYM    DATA     BIT       MOE
      000000C0H.6 SFRSYM    DATA     BIT       PCMP0
      000000C0H.7 SFRSYM    DATA     BIT       PCMP1
      00000098H.4 SFRSYM    DATA     BIT       REN
      000000D7H   SFRSYM    DATA     BYTE      CMP_SR
      000000C8H   SFRSYM    DATA     BIT       PRTC0
      000000C8H.1 SFRSYM    DATA     BIT       PRTC1
      000000B8H.6 SFRSYM    DATA     BIT       PDRV0
      000000B8H.7 SFRSYM    DATA     BIT       PDRV1
      000000D1H   SFRSYM    DATA     BYTE      P1_IE
      000000D3H   SFRSYM    DATA     BYTE      P2_IE
      000000D2H   SFRSYM    DATA     BYTE      P1_IF
      000000D4H   SFRSYM    DATA     BYTE      P2_IF
      000000ACH   SFRSYM    DATA     WORD      TIM2__DR
      000000FCH   SFRSYM    DATA     BYTE      P0_OE
      000000A4H   SFRSYM    DATA     WORD      TIM3__DR
      000000FDH   SFRSYM    DATA     BYTE      P1_OE
      00000094H   SFRSYM    DATA     WORD      TIM4__DR
      000000D0H.5 SFRSYM    DATA     BIT       F0
      000000FEH   SFRSYM    DATA     BYTE      P2_OE
      000000D0H.1 SFRSYM    DATA     BIT       F1
      000000FFH   SFRSYM    DATA     BYTE      P3_OE
      00000080H   SFRSYM    DATA     BIT       GP00
      000000E9H   SFRSYM    DATA     BYTE      P4_OE
      00000090H   SFRSYM    DATA     BIT       GP10
      00000080H.1 SFRSYM    DATA     BIT       GP01
      000000A8H.6 SFRSYM    DATA     BIT       RTCIE
      000000A0H   SFRSYM    DATA     BIT       GP20
      00000090H.1 SFRSYM    DATA     BIT       GP11
      00000080H.2 SFRSYM    DATA     BIT       GP02
      000000B0H   SFRSYM    DATA     BIT       GP30
      000000A0H.1 SFRSYM    DATA     BIT       GP21
      00000090H.2 SFRSYM    DATA     BIT       GP12
      00000080H.3 SFRSYM    DATA     BIT       GP03
      000000D8H.2 SFRSYM    DATA     BIT       PI2C_UT10
      000000B8H   SFRSYM    DATA     BIT       PLVW0
      000000A8H.1 SFRSYM    DATA     BIT       TSDIE
      000000D0H   SFRSYM    DATA     BYTE      PSW
      000000B0H.1 SFRSYM    DATA     BIT       GP31
      000000A0H.2 SFRSYM    DATA     BIT       GP22
      00000090H.3 SFRSYM    DATA     BIT       GP13
      00000080H.4 SFRSYM    DATA     BIT       GP04
      000000D8H.3 SFRSYM    DATA     BIT       PI2C_UT11
      000000B8H.1 SFRSYM    DATA     BIT       PLVW1
LX51 LINKER/LOCATER V4.66.30.0                                                        04/09/2024  13:54:58  PAGE 29


      000000A8H.3 SFRSYM    DATA     BIT       SPIIE
      00000088H.5 SFRSYM    DATA     BIT       TSDIF
      000000B0H.2 SFRSYM    DATA     BIT       GP32
      000000A0H.3 SFRSYM    DATA     BIT       GP23
      00000090H.4 SFRSYM    DATA     BIT       GP14
      00000080H.5 SFRSYM    DATA     BIT       GP05
      000000E8H.2 SFRSYM    DATA     BIT       GP42
      000000B0H.3 SFRSYM    DATA     BIT       GP33
      000000A0H.4 SFRSYM    DATA     BIT       GP24
      00000090H.5 SFRSYM    DATA     BIT       GP15
      00000080H.6 SFRSYM    DATA     BIT       GP06
      00000088H   SFRSYM    DATA     BIT       IT00
      020001EDH   SYMBOL    XDATA    BYTE      IF_Flag
      020001EEH   SYMBOL    XDATA    INT       l_Counter
      020001F0H   SYMBOL    XDATA    BYTE      l_Counter
      020001F1H   SYMBOL    XDATA    BYTE      FCOL_Posi
      020001F2H   SYMBOL    XDATA    BYTE      dBit
      00000006H   SYMBOL    DATA     WORD      VSP

      ---         MODULE    ---      ---       INTERRUPT
      020001DAH   PUBLIC    XDATA    BYTE      AC_Lose_Step
      020001D9H   PUBLIC    XDATA    BYTE      AC_Lose_Zero_Count
      020001D8H   PUBLIC    XDATA    BYTE      AC_Lose_Step_Count
      020001D7H   PUBLIC    XDATA    BYTE      AC_Lose_Zero_Flag
      020001CFH   PUBLIC    XDATA    ---       spidebug
      020001CEH   PUBLIC    XDATA    BYTE      AC_Lose_Flag
      020001CDH   PUBLIC    XDATA    BYTE      AC_Lose_Step_Flag
      020001CBH   PUBLIC    XDATA    WORD      AC_Lose_Power_Limit
      020001CAH   PUBLIC    XDATA    BYTE      AC_Lose_FG_Flag
      020001C8H   PUBLIC    XDATA    INT       EK3
      020001C6H   PUBLIC    XDATA    INT       EK2
      020001C4H   PUBLIC    XDATA    INT       EK1
      01002F9CH   PUBLIC    CODE     ---       CMP3_INT
      01002C2CH   PUBLIC    CODE     ---       TIM4_INT
      01000D3FH   PUBLIC    CODE     ---       SYStick_INT
      01002B8CH   PUBLIC    CODE     ---       TIM3_INT
      01002BDFH   PUBLIC    CODE     ---       CMP_ISR
      01002FFDH   PUBLIC    CODE     ---       TIM2_INT
      010029C1H   PUBLIC    CODE     ---       DRV_ISR
      01000016H   PUBLIC    CODE     ---       EXTERN_INT
      010030B2H   PUBLIC    CODE     ---       LVW_TSD_INT
      000000E8H.3 SFRSYM    DATA     BIT       GP43
      000000B0H.4 SFRSYM    DATA     BIT       GP34
      000000A0H.5 SFRSYM    DATA     BIT       GP25
      00000090H.6 SFRSYM    DATA     BIT       GP16
      00000080H.7 SFRSYM    DATA     BIT       GP07
      00000088H.1 SFRSYM    DATA     BIT       IT01
      00000088H.3 SFRSYM    DATA     BIT       IT10
      000000E8H.4 SFRSYM    DATA     BIT       GP44
      000000B0H.5 SFRSYM    DATA     BIT       GP35
      000000A0H.6 SFRSYM    DATA     BIT       GP26
      00000090H.7 SFRSYM    DATA     BIT       GP17
      00000080H   SFRSYM    DATA     BYTE      P0
      00000088H.4 SFRSYM    DATA     BIT       IT11
      000000C9H   SFRSYM    DATA     BYTE      RST_SR
      000000D9H   SFRSYM    DATA     BYTE      EVT_FILT
      000000E8H.5 SFRSYM    DATA     BIT       GP45
      000000B0H.6 SFRSYM    DATA     BIT       GP36
      000000A0H.7 SFRSYM    DATA     BIT       GP27
      00000090H   SFRSYM    DATA     BYTE      P1
      000000B0H.7 SFRSYM    DATA     BIT       GP37
      000000A0H   SFRSYM    DATA     BYTE      P2
      000000B0H   SFRSYM    DATA     BYTE      P3
      000000E8H   SFRSYM    DATA     BYTE      P4
      000000D0H.6 SFRSYM    DATA     BIT       AC
LX51 LINKER/LOCATER V4.66.30.0                                                        04/09/2024  13:54:58  PAGE 30


      000000A8H.7 SFRSYM    DATA     BIT       EA
      000000D5H   SFRSYM    DATA     BYTE      CMP_CR0
      000000D6H   SFRSYM    DATA     BYTE      CMP_CR1
      000000C6H   SFRSYM    DATA     WORD      MDU_A
      000000DAH   SFRSYM    DATA     BYTE      CMP_CR2
      000000C4H   SFRSYM    DATA     WORD      MDU_B
      000000B8H.2 SFRSYM    DATA     BIT       PX00
      000000DCH   SFRSYM    DATA     BYTE      CMP_CR3
      000000F8H   SFRSYM    DATA     BIT       OISUH
      000000C2H   SFRSYM    DATA     WORD      MDU_C
      000000B8H.3 SFRSYM    DATA     BIT       PX01
      000000B8H.4 SFRSYM    DATA     BIT       PX10
      000000E1H   SFRSYM    DATA     BYTE      CMP_CR4
      000000F8H.2 SFRSYM    DATA     BIT       OISVH
      000000CBH   SFRSYM    DATA     BYTE      MDU_D
      000000B8H.5 SFRSYM    DATA     BIT       PX11
      000000F8H.4 SFRSYM    DATA     BIT       OISWH
      000000F8H.1 SFRSYM    DATA     BIT       OISUL
      000000A8H   SFRSYM    DATA     BYTE      IE
      000000F8H.3 SFRSYM    DATA     BIT       OISVL
      000000F9H   SFRSYM    DATA     BYTE      PI_CR
      000000F8H.5 SFRSYM    DATA     BIT       OISWL
      000000D8H   SFRSYM    DATA     BIT       PCMP30
      000000AAH   SFRSYM    DATA     WORD      TIM2__CNTR
      000000D8H.1 SFRSYM    DATA     BIT       PCMP31
      000000A2H   SFRSYM    DATA     WORD      TIM3__CNTR
      00000092H   SFRSYM    DATA     WORD      TIM4__CNTR
      00000098H   SFRSYM    DATA     BIT       RI
      00000098H.6 SFRSYM    DATA     BIT       UT_MOD0
      00000098H.7 SFRSYM    DATA     BIT       UT_MOD1
      000000D0H.7 SFRSYM    DATA     BIT       CY
      00000098H.1 SFRSYM    DATA     BIT       TI
      000000C0H.2 SFRSYM    DATA     BIT       PTIM10
      00000084H   SFRSYM    DATA     BYTE      FLA_KEY
      000000C0H   SFRSYM    DATA     BIT       PTIM20
      000000C0H.3 SFRSYM    DATA     BIT       PTIM11
      00000098H   SFRSYM    DATA     BYTE      UT_CR
      000000C8H.2 SFRSYM    DATA     BIT       PTIM30
      000000C0H.1 SFRSYM    DATA     BIT       PTIM21
      00000099H   SFRSYM    DATA     BYTE      UT_DR
      000000C8H.3 SFRSYM    DATA     BIT       PTIM31
      000000C8H.6 SFRSYM    DATA     BIT       PTIM40
      000000C8H.7 SFRSYM    DATA     BIT       PTIM41
      000000D0H.2 SFRSYM    DATA     BIT       OV
      0000009AH   SFRSYM    DATA     WORD      UT_BAUD
      000000D8H.4 SFRSYM    DATA     BIT       PSPI_UT20
      000000D8H.5 SFRSYM    DATA     BIT       PSPI_UT21
      000000C8H.4 SFRSYM    DATA     BIT       PSYSTICK0
      000000C8H.5 SFRSYM    DATA     BIT       PSYSTICK1
      00000087H   SFRSYM    DATA     BYTE      PCON
      00000088H   SFRSYM    DATA     BYTE      TCON
      00000082H   SFRSYM    DATA     WORD      DPTR
      00000088H.2 SFRSYM    DATA     BIT       IF0
      000000AEH   SFRSYM    DATA     WORD      TIM2__ARR
      000000A1H   SFRSYM    DATA     BYTE      TIM2_CR0
      000000A6H   SFRSYM    DATA     WORD      TIM3__ARR
      0000009CH   SFRSYM    DATA     BYTE      TIM3_CR0
      000000A9H   SFRSYM    DATA     BYTE      TIM2_CR1
      00000096H   SFRSYM    DATA     WORD      TIM4__ARR
      0000009EH   SFRSYM    DATA     BYTE      TIM4_CR0
      0000009DH   SFRSYM    DATA     BYTE      TIM3_CR1
      000000F8H   SFRSYM    DATA     BYTE      DRV_OUT
      0000009FH   SFRSYM    DATA     BYTE      TIM4_CR1
      000000E0H   SFRSYM    DATA     BYTE      ACC
      000000DBH   SFRSYM    DATA     BYTE      LVSR
LX51 LINKER/LOCATER V4.66.30.0                                                        04/09/2024  13:54:58  PAGE 31


      000000A8H.4 SFRSYM    DATA     BIT       ES0
      00000085H   SFRSYM    DATA     BYTE      FLA_CR
      000000C0H.4 SFRSYM    DATA     BIT       PADC0
      000000B8H   SFRSYM    DATA     BYTE      IP0
      000000C0H.5 SFRSYM    DATA     BIT       PADC1
      000000C0H   SFRSYM    DATA     BYTE      IP1
      000000C8H   SFRSYM    DATA     BYTE      IP2
      00000098H.2 SFRSYM    DATA     BIT       RB8
      000000D8H   SFRSYM    DATA     BYTE      IP3
      000000A8H   SFRSYM    DATA     BIT       EX0
      00000098H.3 SFRSYM    DATA     BIT       TB8
      000000A8H.2 SFRSYM    DATA     BIT       EX1
      000000D0H   SFRSYM    DATA     BIT       P
      0000008AH   SFRSYM    DATA     BYTE      UT2_CR
      00000089H   SFRSYM    DATA     BYTE      UT2_DR
      00000098H.5 SFRSYM    DATA     BIT       SM2
      000000D8H.6 SFRSYM    DATA     BIT       PDMA0
      000000D8H.7 SFRSYM    DATA     BIT       PDMA1
      000000D0H.3 SFRSYM    DATA     BIT       RS0
      000000D0H.4 SFRSYM    DATA     BIT       RS1
      000000CAH   SFRSYM    DATA     BYTE      MDU_MD
      000000C1H   SFRSYM    DATA     BYTE      MDU_CR
      000000F8H.7 SFRSYM    DATA     BIT       MOE
      000000C0H.6 SFRSYM    DATA     BIT       PCMP0
      000000C0H.7 SFRSYM    DATA     BIT       PCMP1
      00000098H.4 SFRSYM    DATA     BIT       REN
      000000D7H   SFRSYM    DATA     BYTE      CMP_SR
      000000C8H   SFRSYM    DATA     BIT       PRTC0
      000000C8H.1 SFRSYM    DATA     BIT       PRTC1
      000000B8H.6 SFRSYM    DATA     BIT       PDRV0
      000000B8H.7 SFRSYM    DATA     BIT       PDRV1
      000000D1H   SFRSYM    DATA     BYTE      P1_IE
      000000D3H   SFRSYM    DATA     BYTE      P2_IE
      000000D2H   SFRSYM    DATA     BYTE      P1_IF
      000000D4H   SFRSYM    DATA     BYTE      P2_IF
      000000ACH   SFRSYM    DATA     WORD      TIM2__DR
      000000FCH   SFRSYM    DATA     BYTE      P0_OE
      000000A4H   SFRSYM    DATA     WORD      TIM3__DR
      000000FDH   SFRSYM    DATA     BYTE      P1_OE
      00000094H   SFRSYM    DATA     WORD      TIM4__DR
      000000D0H.5 SFRSYM    DATA     BIT       F0
      000000FEH   SFRSYM    DATA     BYTE      P2_OE
      000000D0H.1 SFRSYM    DATA     BIT       F1
      000000FFH   SFRSYM    DATA     BYTE      P3_OE
      00000080H   SFRSYM    DATA     BIT       GP00
      000000E9H   SFRSYM    DATA     BYTE      P4_OE
      00000090H   SFRSYM    DATA     BIT       GP10
      00000080H.1 SFRSYM    DATA     BIT       GP01
      000000A8H.6 SFRSYM    DATA     BIT       RTCIE
      000000A0H   SFRSYM    DATA     BIT       GP20
      00000090H.1 SFRSYM    DATA     BIT       GP11
      00000080H.2 SFRSYM    DATA     BIT       GP02
      000000B0H   SFRSYM    DATA     BIT       GP30
      000000A0H.1 SFRSYM    DATA     BIT       GP21
      00000090H.2 SFRSYM    DATA     BIT       GP12
      00000080H.3 SFRSYM    DATA     BIT       GP03
      000000D8H.2 SFRSYM    DATA     BIT       PI2C_UT10
      000000B8H   SFRSYM    DATA     BIT       PLVW0
      000000A8H.1 SFRSYM    DATA     BIT       TSDIE
      000000D0H   SFRSYM    DATA     BYTE      PSW
      000000B0H.1 SFRSYM    DATA     BIT       GP31
      000000A0H.2 SFRSYM    DATA     BIT       GP22
      00000090H.3 SFRSYM    DATA     BIT       GP13
      00000080H.4 SFRSYM    DATA     BIT       GP04
      000000D8H.3 SFRSYM    DATA     BIT       PI2C_UT11
LX51 LINKER/LOCATER V4.66.30.0                                                        04/09/2024  13:54:58  PAGE 32


      000000B8H.1 SFRSYM    DATA     BIT       PLVW1
      000000A8H.3 SFRSYM    DATA     BIT       SPIIE
      00000088H.5 SFRSYM    DATA     BIT       TSDIF
      000000B0H.2 SFRSYM    DATA     BIT       GP32
      000000A0H.3 SFRSYM    DATA     BIT       GP23
      00000090H.4 SFRSYM    DATA     BIT       GP14
      00000080H.5 SFRSYM    DATA     BIT       GP05
      000000E8H.2 SFRSYM    DATA     BIT       GP42
      000000B0H.3 SFRSYM    DATA     BIT       GP33
      000000A0H.4 SFRSYM    DATA     BIT       GP24
      00000090H.5 SFRSYM    DATA     BIT       GP15
      00000080H.6 SFRSYM    DATA     BIT       GP06
      00000088H   SFRSYM    DATA     BIT       IT00

      010030B2H   BLOCK     CODE     ---       LVL=0
      010030B2H   LINE      CODE     ---       #32
      010030B2H   LINE      CODE     ---       #35
      010030B5H   LINE      CODE     ---       #36
      010030B5H   LINE      CODE     ---       #37
      010030B7H   LINE      CODE     ---       #38
      010030B7H   LINE      CODE     ---       #40
      ---         BLOCKEND  ---      ---       LVL=0

      01000016H   BLOCK     CODE     ---       LVL=0
      01000016H   LINE      CODE     ---       #67
      01000016H   LINE      CODE     ---       #75
      ---         BLOCKEND  ---      ---       LVL=0

      010029C1H   BLOCK     CODE     ---       LVL=0
      010029C1H   LINE      CODE     ---       #84
      010029DEH   LINE      CODE     ---       #86
      010029E5H   LINE      CODE     ---       #87
      010029E5H   LINE      CODE     ---       #88
      010029E9H   LINE      CODE     ---       #89
      010029E9H   LINE      CODE     ---       #90
      010029F0H   LINE      CODE     ---       #91
      010029F0H   LINE      CODE     ---       #93
      010029F9H   LINE      CODE     ---       #105
      010029F9H   LINE      CODE     ---       #107
      010029F9H   LINE      CODE     ---       #110
      010029FFH   LINE      CODE     ---       #111
      010029FFH   LINE      CODE     ---       #112
      01002A02H   LINE      CODE     ---       #113
      01002A02H   LINE      CODE     ---       #115
      01002A0BH   LINE      CODE     ---       #116
      01002A0BH   LINE      CODE     ---       #117
      ---         BLOCKEND  ---      ---       LVL=0

      01002FFDH   BLOCK     CODE     ---       LVL=0
      01002FFDH   LINE      CODE     ---       #125
      01002FFFH   LINE      CODE     ---       #127
      01003004H   LINE      CODE     ---       #128
      01003004H   LINE      CODE     ---       #129
      01003007H   LINE      CODE     ---       #130
      01003007H   LINE      CODE     ---       #131
      0100300CH   LINE      CODE     ---       #132
      0100300CH   LINE      CODE     ---       #133
      0100300FH   LINE      CODE     ---       #134
      0100300FH   LINE      CODE     ---       #135
      01003014H   LINE      CODE     ---       #136
      01003014H   LINE      CODE     ---       #137
      01003017H   LINE      CODE     ---       #138
      01003017H   LINE      CODE     ---       #139
      ---         BLOCKEND  ---      ---       LVL=0

LX51 LINKER/LOCATER V4.66.30.0                                                        04/09/2024  13:54:58  PAGE 33


      01002BDFH   BLOCK     CODE     ---       LVL=0
      01002BDFH   LINE      CODE     ---       #148
      01002BFCH   LINE      CODE     ---       #150
      01002C0BH   LINE      CODE     ---       #151
      01002C0BH   LINE      CODE     ---       #153
      01002C0EH   LINE      CODE     ---       #154
      01002C11H   LINE      CODE     ---       #155
      01002C11H   LINE      CODE     ---       #156
      ---         BLOCKEND  ---      ---       LVL=0

      01002B8CH   BLOCK     CODE     ---       LVL=0
      01002B8CH   LINE      CODE     ---       #173
      01002BA9H   LINE      CODE     ---       #181
      01002BAEH   LINE      CODE     ---       #182
      01002BAEH   LINE      CODE     ---       #183
      01002BB1H   LINE      CODE     ---       #184
      01002BB1H   LINE      CODE     ---       #185
      01002BB6H   LINE      CODE     ---       #186
      01002BB6H   LINE      CODE     ---       #192
      01002BB9H   LINE      CODE     ---       #193
      01002BB9H   LINE      CODE     ---       #195
      01002BBEH   LINE      CODE     ---       #196
      01002BBEH   LINE      CODE     ---       #204
      01002BBEH   LINE      CODE     ---       #205
      01002BC1H   LINE      CODE     ---       #206
      01002BC1H   LINE      CODE     ---       #208
      01002BC4H   LINE      CODE     ---       #209
      01002BC4H   LINE      CODE     ---       #210
      ---         BLOCKEND  ---      ---       LVL=0

      01000D3FH   BLOCK     CODE     ---       LVL=0
      01000D3FH   LINE      CODE     ---       #222
      01000D5CH   LINE      CODE     ---       #225
      01000D66H   LINE      CODE     ---       #226
      01000D66H   LINE      CODE     ---       #228
      01000D6EH   LINE      CODE     ---       #229
      01000D6EH   LINE      CODE     ---       #230
      01000D75H   LINE      CODE     ---       #231
      01000D75H   LINE      CODE     ---       #232
      01000D7BH   LINE      CODE     ---       #233
      01000D7BH   LINE      CODE     ---       #234
      01000D8AH   LINE      CODE     ---       #235
      01000D99H   LINE      CODE     ---       #236
      01000DA8H   LINE      CODE     ---       #237
      01000DACH   LINE      CODE     ---       #238
      01000DACH   LINE      CODE     ---       #240
      01000DB6H   LINE      CODE     ---       #241
      01000DB6H   LINE      CODE     ---       #242
      01000DC4H   LINE      CODE     ---       #243
      01000DC4H   LINE      CODE     ---       #244
      01000DC4H   LINE      CODE     ---       #245
      01000DC4H   LINE      CODE     ---       #257
      01000DC4H   LINE      CODE     ---       #258
      01000DC7H   LINE      CODE     ---       #259
      01000DC7H   LINE      CODE     ---       #276
      01000DE2H   LINE      CODE     ---       #277
      01000DE2H   LINE      CODE     ---       #278
      01000DF0H   LINE      CODE     ---       #279
      01000DF0H   LINE      CODE     ---       #302
      01000DF0H   LINE      CODE     ---       #303
      01000DF3H   LINE      CODE     ---       #304
      01000DF3H   LINE      CODE     ---       #308
      01000DF3H   LINE      CODE     ---       #309
      01000DF6H   LINE      CODE     ---       #312
      01000E00H   LINE      CODE     ---       #313
LX51 LINKER/LOCATER V4.66.30.0                                                        04/09/2024  13:54:58  PAGE 34


      01000E00H   LINE      CODE     ---       #314
      01000E07H   LINE      CODE     ---       #315
      01000E09H   LINE      CODE     ---       #317
      01000E09H   LINE      CODE     ---       #319
      01000E09H   LINE      CODE     ---       #320
      01000E10H   LINE      CODE     ---       #321
      01000E10H   LINE      CODE     ---       #323
      01000E10H   LINE      CODE     ---       #325
      01000E10H   LINE      CODE     ---       #340
      01000E17H   LINE      CODE     ---       #341
      01000E26H   LINE      CODE     ---       #342
      01000E35H   LINE      CODE     ---       #343
      01000E44H   LINE      CODE     ---       #346
      01000E53H   LINE      CODE     ---       #347
      01000E62H   LINE      CODE     ---       #350
      01000E6AH   LINE      CODE     ---       #351
      01000E6AH   LINE      CODE     ---       #352
      01000E84H   LINE      CODE     ---       #353
      01000EC7H   LINE      CODE     ---       #354
      01000EC9H   LINE      CODE     ---       #356
      01000EC9H   LINE      CODE     ---       #357
      01000ED0H   LINE      CODE     ---       #358
      01000ED0H   LINE      CODE     ---       #361
      01000EDEH   LINE      CODE     ---       #362
      01000EDEH   LINE      CODE     ---       #363
      01000F22H   LINE      CODE     ---       #364
      01000F24H   LINE      CODE     ---       #366
      01000F24H   LINE      CODE     ---       #367
      01000F2BH   LINE      CODE     ---       #368
      01000F2BH   LINE      CODE     ---       #370
      01000F57H   LINE      CODE     ---       #372
      01000F5AH   LINE      CODE     ---       #387
      01000F5AH   LINE      CODE     ---       #388
      01000F69H   LINE      CODE     ---       #389
      01000F69H   LINE      CODE     ---       #392
      01000FB0H   LINE      CODE     ---       #399
      01000FB3H   LINE      CODE     ---       #402
      01000FC2H   LINE      CODE     ---       #403
      01000FCEH   LINE      CODE     ---       #404
      01000FD1H   LINE      CODE     ---       #405
      01000FE0H   LINE      CODE     ---       #406
      01000FECH   LINE      CODE     ---       #407
      01000FF3H   LINE      CODE     ---       #408
      01000FF3H   LINE      CODE     ---       #409
      01001001H   LINE      CODE     ---       #410
      01001001H   LINE      CODE     ---       #411
      01001008H   LINE      CODE     ---       #412
      01001008H   LINE      CODE     ---       #413
      01001016H   LINE      CODE     ---       #414
      01001016H   LINE      CODE     ---       #415
      01001031H   LINE      CODE     ---       #416
      01001031H   LINE      CODE     ---       #417
      0100103DH   LINE      CODE     ---       #418
      0100103DH   LINE      CODE     ---       #419
      01001046H   LINE      CODE     ---       #421
      01001046H   LINE      CODE     ---       #422
      ---         BLOCKEND  ---      ---       LVL=0

      01002C2CH   BLOCK     CODE     ---       LVL=0
      01002C2CH   LINE      CODE     ---       #425
      01002C49H   LINE      CODE     ---       #431
      01002C4EH   LINE      CODE     ---       #432
      01002C4EH   LINE      CODE     ---       #433
      01002C51H   LINE      CODE     ---       #434
      01002C51H   LINE      CODE     ---       #436
LX51 LINKER/LOCATER V4.66.30.0                                                        04/09/2024  13:54:58  PAGE 35


      01002C56H   LINE      CODE     ---       #437
      01002C56H   LINE      CODE     ---       #439
      01002C56H   LINE      CODE     ---       #440
      01002C59H   LINE      CODE     ---       #441
      01002C59H   LINE      CODE     ---       #443
      01002C5CH   LINE      CODE     ---       #444
      01002C5CH   LINE      CODE     ---       #445
      ---         BLOCKEND  ---      ---       LVL=0

      01002F9CH   BLOCK     CODE     ---       LVL=0
      01002F9CH   LINE      CODE     ---       #454
      01002FA2H   LINE      CODE     ---       #456
      01002FA7H   LINE      CODE     ---       #457
      01002FA7H   LINE      CODE     ---       #458
      01002FAFH   LINE      CODE     ---       #459
      01002FB4H   LINE      CODE     ---       #460
      01002FB7H   LINE      CODE     ---       #461
      01002FB7H   LINE      CODE     ---       #462
      ---         BLOCKEND  ---      ---       LVL=0

      ---         MODULE    ---      ---       MAIN
      00000008H   PUBLIC    DATA     BYTE      g_1mTick
      02000221H   PUBLIC    XDATA    WORD      RealVolt
      01000026H   PUBLIC    CODE     ---       SoftwareInit
      01002D08H   PUBLIC    CODE     ---       HardwareInit
      01002D4FH   PUBLIC    CODE     ---       main
      000000E8H.3 SFRSYM    DATA     BIT       GP43
      000000B0H.4 SFRSYM    DATA     BIT       GP34
      000000A0H.5 SFRSYM    DATA     BIT       GP25
      00000090H.6 SFRSYM    DATA     BIT       GP16
      00000080H.7 SFRSYM    DATA     BIT       GP07
      00000088H.1 SFRSYM    DATA     BIT       IT01
      00000088H.3 SFRSYM    DATA     BIT       IT10
      000000E8H.4 SFRSYM    DATA     BIT       GP44
      000000B0H.5 SFRSYM    DATA     BIT       GP35
      000000A0H.6 SFRSYM    DATA     BIT       GP26
      00000090H.7 SFRSYM    DATA     BIT       GP17
      00000080H   SFRSYM    DATA     BYTE      P0
      00000088H.4 SFRSYM    DATA     BIT       IT11
      000000C9H   SFRSYM    DATA     BYTE      RST_SR
      000000D9H   SFRSYM    DATA     BYTE      EVT_FILT
      000000E8H.5 SFRSYM    DATA     BIT       GP45
      000000B0H.6 SFRSYM    DATA     BIT       GP36
      000000A0H.7 SFRSYM    DATA     BIT       GP27
      00000090H   SFRSYM    DATA     BYTE      P1
      000000B0H.7 SFRSYM    DATA     BIT       GP37
      000000A0H   SFRSYM    DATA     BYTE      P2
      000000B0H   SFRSYM    DATA     BYTE      P3
      000000E8H   SFRSYM    DATA     BYTE      P4
      000000D0H.6 SFRSYM    DATA     BIT       AC
      000000A8H.7 SFRSYM    DATA     BIT       EA
      000000D5H   SFRSYM    DATA     BYTE      CMP_CR0
      000000D6H   SFRSYM    DATA     BYTE      CMP_CR1
      000000C6H   SFRSYM    DATA     WORD      MDU_A
      000000DAH   SFRSYM    DATA     BYTE      CMP_CR2
      000000C4H   SFRSYM    DATA     WORD      MDU_B
      000000B8H.2 SFRSYM    DATA     BIT       PX00
      000000DCH   SFRSYM    DATA     BYTE      CMP_CR3
      000000F8H   SFRSYM    DATA     BIT       OISUH
      000000C2H   SFRSYM    DATA     WORD      MDU_C
      000000B8H.3 SFRSYM    DATA     BIT       PX01
      000000B8H.4 SFRSYM    DATA     BIT       PX10
      000000E1H   SFRSYM    DATA     BYTE      CMP_CR4
      000000F8H.2 SFRSYM    DATA     BIT       OISVH
      000000CBH   SFRSYM    DATA     BYTE      MDU_D
LX51 LINKER/LOCATER V4.66.30.0                                                        04/09/2024  13:54:58  PAGE 36


      000000B8H.5 SFRSYM    DATA     BIT       PX11
      000000F8H.4 SFRSYM    DATA     BIT       OISWH
      000000F8H.1 SFRSYM    DATA     BIT       OISUL
      000000A8H   SFRSYM    DATA     BYTE      IE
      000000F8H.3 SFRSYM    DATA     BIT       OISVL
      000000F9H   SFRSYM    DATA     BYTE      PI_CR
      000000F8H.5 SFRSYM    DATA     BIT       OISWL
      000000D8H   SFRSYM    DATA     BIT       PCMP30
      000000AAH   SFRSYM    DATA     WORD      TIM2__CNTR
      000000D8H.1 SFRSYM    DATA     BIT       PCMP31
      000000A2H   SFRSYM    DATA     WORD      TIM3__CNTR
      00000092H   SFRSYM    DATA     WORD      TIM4__CNTR
      00000098H   SFRSYM    DATA     BIT       RI
      00000098H.6 SFRSYM    DATA     BIT       UT_MOD0
      00000098H.7 SFRSYM    DATA     BIT       UT_MOD1
      000000D0H.7 SFRSYM    DATA     BIT       CY
      00000098H.1 SFRSYM    DATA     BIT       TI
      000000C0H.2 SFRSYM    DATA     BIT       PTIM10
      00000084H   SFRSYM    DATA     BYTE      FLA_KEY
      000000C0H   SFRSYM    DATA     BIT       PTIM20
      000000C0H.3 SFRSYM    DATA     BIT       PTIM11
      00000098H   SFRSYM    DATA     BYTE      UT_CR
      000000C8H.2 SFRSYM    DATA     BIT       PTIM30
      000000C0H.1 SFRSYM    DATA     BIT       PTIM21
      00000099H   SFRSYM    DATA     BYTE      UT_DR
      000000C8H.3 SFRSYM    DATA     BIT       PTIM31
      000000C8H.6 SFRSYM    DATA     BIT       PTIM40
      000000C8H.7 SFRSYM    DATA     BIT       PTIM41
      000000D0H.2 SFRSYM    DATA     BIT       OV
      0000009AH   SFRSYM    DATA     WORD      UT_BAUD
      000000D8H.4 SFRSYM    DATA     BIT       PSPI_UT20
      000000D8H.5 SFRSYM    DATA     BIT       PSPI_UT21
      000000C8H.4 SFRSYM    DATA     BIT       PSYSTICK0
      000000C8H.5 SFRSYM    DATA     BIT       PSYSTICK1
      00000087H   SFRSYM    DATA     BYTE      PCON
      00000088H   SFRSYM    DATA     BYTE      TCON
      00000082H   SFRSYM    DATA     WORD      DPTR
      00000088H.2 SFRSYM    DATA     BIT       IF0
      000000AEH   SFRSYM    DATA     WORD      TIM2__ARR
      000000A1H   SFRSYM    DATA     BYTE      TIM2_CR0
      000000A6H   SFRSYM    DATA     WORD      TIM3__ARR
      0000009CH   SFRSYM    DATA     BYTE      TIM3_CR0
      000000A9H   SFRSYM    DATA     BYTE      TIM2_CR1
      00000096H   SFRSYM    DATA     WORD      TIM4__ARR
      0000009EH   SFRSYM    DATA     BYTE      TIM4_CR0
      0000009DH   SFRSYM    DATA     BYTE      TIM3_CR1
      000000F8H   SFRSYM    DATA     BYTE      DRV_OUT
      0000009FH   SFRSYM    DATA     BYTE      TIM4_CR1
      000000E0H   SFRSYM    DATA     BYTE      ACC
      000000DBH   SFRSYM    DATA     BYTE      LVSR
      000000A8H.4 SFRSYM    DATA     BIT       ES0
      00000085H   SFRSYM    DATA     BYTE      FLA_CR
      000000C0H.4 SFRSYM    DATA     BIT       PADC0
      000000B8H   SFRSYM    DATA     BYTE      IP0
      000000C0H.5 SFRSYM    DATA     BIT       PADC1
      000000C0H   SFRSYM    DATA     BYTE      IP1
      000000C8H   SFRSYM    DATA     BYTE      IP2
      00000098H.2 SFRSYM    DATA     BIT       RB8
      000000D8H   SFRSYM    DATA     BYTE      IP3
      000000A8H   SFRSYM    DATA     BIT       EX0
      00000098H.3 SFRSYM    DATA     BIT       TB8
      000000A8H.2 SFRSYM    DATA     BIT       EX1
      000000D0H   SFRSYM    DATA     BIT       P
      0000008AH   SFRSYM    DATA     BYTE      UT2_CR
      00000089H   SFRSYM    DATA     BYTE      UT2_DR
LX51 LINKER/LOCATER V4.66.30.0                                                        04/09/2024  13:54:58  PAGE 37


      00000098H.5 SFRSYM    DATA     BIT       SM2
      000000D8H.6 SFRSYM    DATA     BIT       PDMA0
      000000D8H.7 SFRSYM    DATA     BIT       PDMA1
      000000D0H.3 SFRSYM    DATA     BIT       RS0
      000000D0H.4 SFRSYM    DATA     BIT       RS1
      000000CAH   SFRSYM    DATA     BYTE      MDU_MD
      000000C1H   SFRSYM    DATA     BYTE      MDU_CR
      000000F8H.7 SFRSYM    DATA     BIT       MOE
      000000C0H.6 SFRSYM    DATA     BIT       PCMP0
      000000C0H.7 SFRSYM    DATA     BIT       PCMP1
      00000098H.4 SFRSYM    DATA     BIT       REN
      000000D7H   SFRSYM    DATA     BYTE      CMP_SR
      000000C8H   SFRSYM    DATA     BIT       PRTC0
      000000C8H.1 SFRSYM    DATA     BIT       PRTC1
      000000B8H.6 SFRSYM    DATA     BIT       PDRV0
      000000B8H.7 SFRSYM    DATA     BIT       PDRV1
      000000D1H   SFRSYM    DATA     BYTE      P1_IE
      000000D3H   SFRSYM    DATA     BYTE      P2_IE
      000000D2H   SFRSYM    DATA     BYTE      P1_IF
      000000D4H   SFRSYM    DATA     BYTE      P2_IF
      000000ACH   SFRSYM    DATA     WORD      TIM2__DR
      000000FCH   SFRSYM    DATA     BYTE      P0_OE
      000000A4H   SFRSYM    DATA     WORD      TIM3__DR
      000000FDH   SFRSYM    DATA     BYTE      P1_OE
      00000094H   SFRSYM    DATA     WORD      TIM4__DR
      000000D0H.5 SFRSYM    DATA     BIT       F0
      000000FEH   SFRSYM    DATA     BYTE      P2_OE
      000000D0H.1 SFRSYM    DATA     BIT       F1
      000000FFH   SFRSYM    DATA     BYTE      P3_OE
      00000080H   SFRSYM    DATA     BIT       GP00
      000000E9H   SFRSYM    DATA     BYTE      P4_OE
      00000090H   SFRSYM    DATA     BIT       GP10
      00000080H.1 SFRSYM    DATA     BIT       GP01
      000000A8H.6 SFRSYM    DATA     BIT       RTCIE
      000000A0H   SFRSYM    DATA     BIT       GP20
      00000090H.1 SFRSYM    DATA     BIT       GP11
      00000080H.2 SFRSYM    DATA     BIT       GP02
      000000B0H   SFRSYM    DATA     BIT       GP30
      000000A0H.1 SFRSYM    DATA     BIT       GP21
      00000090H.2 SFRSYM    DATA     BIT       GP12
      00000080H.3 SFRSYM    DATA     BIT       GP03
      000000D8H.2 SFRSYM    DATA     BIT       PI2C_UT10
      000000B8H   SFRSYM    DATA     BIT       PLVW0
      000000A8H.1 SFRSYM    DATA     BIT       TSDIE
      000000D0H   SFRSYM    DATA     BYTE      PSW
      000000B0H.1 SFRSYM    DATA     BIT       GP31
      000000A0H.2 SFRSYM    DATA     BIT       GP22
      00000090H.3 SFRSYM    DATA     BIT       GP13
      00000080H.4 SFRSYM    DATA     BIT       GP04
      000000D8H.3 SFRSYM    DATA     BIT       PI2C_UT11
      000000B8H.1 SFRSYM    DATA     BIT       PLVW1
      000000A8H.3 SFRSYM    DATA     BIT       SPIIE
      00000088H.5 SFRSYM    DATA     BIT       TSDIF
      000000B0H.2 SFRSYM    DATA     BIT       GP32
      000000A0H.3 SFRSYM    DATA     BIT       GP23
      00000090H.4 SFRSYM    DATA     BIT       GP14
      00000080H.5 SFRSYM    DATA     BIT       GP05
      000000E8H.2 SFRSYM    DATA     BIT       GP42
      000000B0H.3 SFRSYM    DATA     BIT       GP33
      000000A0H.4 SFRSYM    DATA     BIT       GP24
      00000090H.5 SFRSYM    DATA     BIT       GP15
      00000080H.6 SFRSYM    DATA     BIT       GP06
      00000088H   SFRSYM    DATA     BIT       IT00

      01002D4FH   BLOCK     CODE     ---       LVL=0
LX51 LINKER/LOCATER V4.66.30.0                                                        04/09/2024  13:54:58  PAGE 38


      01002D4FH   LINE      CODE     ---       #49
      01002D4FH   LINE      CODE     ---       #50
      01002D4FH   LINE      CODE     ---       #51
      01002D52H   LINE      CODE     ---       #52
      01002D55H   LINE      CODE     ---       #54
      01002D57H   LINE      CODE     ---       #56
      01002D57H   LINE      CODE     ---       #57
      01002D57H   LINE      CODE     ---       #58
      01002D5AH   LINE      CODE     ---       #59
      01002D5DH   LINE      CODE     ---       #60
      01002D8AH   LINE      CODE     ---       #78
      01002D8AH   LINE      CODE     ---       #84
      01002D8AH   LINE      CODE     ---       #85
      01002D8DH   LINE      CODE     ---       #86
      01002D8DH   LINE      CODE     ---       #93
      01002D8DH   LINE      CODE     ---       #97
      01002D8DH   LINE      CODE     ---       #98
      01002D90H   LINE      CODE     ---       #99
      01002D90H   LINE      CODE     ---       #114
      ---         BLOCKEND  ---      ---       LVL=0

      01002D08H   BLOCK     CODE     ---       LVL=0
      01002D08H   BLOCK     CODE     NEAR LAB  LVL=1
      00000006H   SYMBOL    DATA     WORD      PowerUpCnt
      ---         BLOCKEND  ---      ---       LVL=1
      01002D08H   LINE      CODE     ---       #124
      01002D08H   LINE      CODE     ---       #125
      01002D08H   LINE      CODE     ---       #126
      01002D0BH   LINE      CODE     ---       #129
      01002D12H   LINE      CODE     ---       #131
      01002D12H   LINE      CODE     ---       #132
      01002D19H   LINE      CODE     ---       #133
      01002D1DH   LINE      CODE     ---       #134
      01002D1DH   LINE      CODE     ---       #156
      01002D21H   LINE      CODE     ---       #181
      01002D24H   LINE      CODE     ---       #182
      01002D27H   LINE      CODE     ---       #183
      01002D2AH   LINE      CODE     ---       #184
      01002D2DH   LINE      CODE     ---       #187
      01002D3BH   LINE      CODE     ---       #190
      01002D3EH   LINE      CODE     ---       #191
      01002D41H   LINE      CODE     ---       #200
      01002D41H   LINE      CODE     ---       #201
      01002D44H   LINE      CODE     ---       #202
      01002D44H   LINE      CODE     ---       #211
      01002D47H   LINE      CODE     ---       #213
      01002D4EH   LINE      CODE     ---       #214
      ---         BLOCKEND  ---      ---       LVL=0

      01000026H   BLOCK     CODE     ---       LVL=0
      01000026H   LINE      CODE     ---       #223
      01000026H   LINE      CODE     ---       #224
      01000026H   LINE      CODE     ---       #248
      01000026H   LINE      CODE     ---       #249
      01000029H   LINE      CODE     ---       #250
      01000029H   LINE      CODE     ---       #256
      01000029H   LINE      CODE     ---       #257
      0100002CH   LINE      CODE     ---       #258
      0100002CH   LINE      CODE     ---       #262
      0100002FH   LINE      CODE     ---       #263
      01000034H   LINE      CODE     ---       #264
      0100003AH   LINE      CODE     ---       #265
      ---         BLOCKEND  ---      ---       LVL=0

      ---         MODULE    ---      ---       HPFCOL_DATA
LX51 LINKER/LOCATER V4.66.30.0                                                        04/09/2024  13:54:58  PAGE 39


      0200010EH   PUBLIC    XDATA    ---       DUMMY_SPACE

      ---         MODULE    ---      ---       MOTORCONTROL
      02000220H   PUBLIC    XDATA    BYTE      mcState
      0200021EH   PUBLIC    XDATA    WORD      TimeCnt
      0200021DH   PUBLIC    XDATA    ---       McStaSet
      01001559H   PUBLIC    CODE     ---       MC_Control
      000000E8H.3 SFRSYM    DATA     BIT       GP43
      000000B0H.4 SFRSYM    DATA     BIT       GP34
      000000A0H.5 SFRSYM    DATA     BIT       GP25
      00000090H.6 SFRSYM    DATA     BIT       GP16
      00000080H.7 SFRSYM    DATA     BIT       GP07
      00000088H.1 SFRSYM    DATA     BIT       IT01
      00000088H.3 SFRSYM    DATA     BIT       IT10
      000000E8H.4 SFRSYM    DATA     BIT       GP44
      000000B0H.5 SFRSYM    DATA     BIT       GP35
      000000A0H.6 SFRSYM    DATA     BIT       GP26
      00000090H.7 SFRSYM    DATA     BIT       GP17
      00000080H   SFRSYM    DATA     BYTE      P0
      00000088H.4 SFRSYM    DATA     BIT       IT11
      000000C9H   SFRSYM    DATA     BYTE      RST_SR
      000000D9H   SFRSYM    DATA     BYTE      EVT_FILT
      000000E8H.5 SFRSYM    DATA     BIT       GP45
      000000B0H.6 SFRSYM    DATA     BIT       GP36
      000000A0H.7 SFRSYM    DATA     BIT       GP27
      00000090H   SFRSYM    DATA     BYTE      P1
      000000B0H.7 SFRSYM    DATA     BIT       GP37
      000000A0H   SFRSYM    DATA     BYTE      P2
      000000B0H   SFRSYM    DATA     BYTE      P3
      000000E8H   SFRSYM    DATA     BYTE      P4
      000000D0H.6 SFRSYM    DATA     BIT       AC
      000000A8H.7 SFRSYM    DATA     BIT       EA
      000000D5H   SFRSYM    DATA     BYTE      CMP_CR0
      000000D6H   SFRSYM    DATA     BYTE      CMP_CR1
      000000C6H   SFRSYM    DATA     WORD      MDU_A
      000000DAH   SFRSYM    DATA     BYTE      CMP_CR2
      000000C4H   SFRSYM    DATA     WORD      MDU_B
      000000B8H.2 SFRSYM    DATA     BIT       PX00
      000000DCH   SFRSYM    DATA     BYTE      CMP_CR3
      000000F8H   SFRSYM    DATA     BIT       OISUH
      000000C2H   SFRSYM    DATA     WORD      MDU_C
      000000B8H.3 SFRSYM    DATA     BIT       PX01
      000000B8H.4 SFRSYM    DATA     BIT       PX10
      000000E1H   SFRSYM    DATA     BYTE      CMP_CR4
      000000F8H.2 SFRSYM    DATA     BIT       OISVH
      000000CBH   SFRSYM    DATA     BYTE      MDU_D
      000000B8H.5 SFRSYM    DATA     BIT       PX11
      000000F8H.4 SFRSYM    DATA     BIT       OISWH
      000000F8H.1 SFRSYM    DATA     BIT       OISUL
      000000A8H   SFRSYM    DATA     BYTE      IE
      000000F8H.3 SFRSYM    DATA     BIT       OISVL
      000000F9H   SFRSYM    DATA     BYTE      PI_CR
      000000F8H.5 SFRSYM    DATA     BIT       OISWL
      000000D8H   SFRSYM    DATA     BIT       PCMP30
      000000AAH   SFRSYM    DATA     WORD      TIM2__CNTR
      000000D8H.1 SFRSYM    DATA     BIT       PCMP31
      000000A2H   SFRSYM    DATA     WORD      TIM3__CNTR
      00000092H   SFRSYM    DATA     WORD      TIM4__CNTR
      00000098H   SFRSYM    DATA     BIT       RI
      00000098H.6 SFRSYM    DATA     BIT       UT_MOD0
      00000098H.7 SFRSYM    DATA     BIT       UT_MOD1
      000000D0H.7 SFRSYM    DATA     BIT       CY
      00000098H.1 SFRSYM    DATA     BIT       TI
      000000C0H.2 SFRSYM    DATA     BIT       PTIM10
      00000084H   SFRSYM    DATA     BYTE      FLA_KEY
LX51 LINKER/LOCATER V4.66.30.0                                                        04/09/2024  13:54:58  PAGE 40


      000000C0H   SFRSYM    DATA     BIT       PTIM20
      000000C0H.3 SFRSYM    DATA     BIT       PTIM11
      00000098H   SFRSYM    DATA     BYTE      UT_CR
      000000C8H.2 SFRSYM    DATA     BIT       PTIM30
      000000C0H.1 SFRSYM    DATA     BIT       PTIM21
      00000099H   SFRSYM    DATA     BYTE      UT_DR
      000000C8H.3 SFRSYM    DATA     BIT       PTIM31
      000000C8H.6 SFRSYM    DATA     BIT       PTIM40
      000000C8H.7 SFRSYM    DATA     BIT       PTIM41
      000000D0H.2 SFRSYM    DATA     BIT       OV
      0000009AH   SFRSYM    DATA     WORD      UT_BAUD
      000000D8H.4 SFRSYM    DATA     BIT       PSPI_UT20
      000000D8H.5 SFRSYM    DATA     BIT       PSPI_UT21
      000000C8H.4 SFRSYM    DATA     BIT       PSYSTICK0
      000000C8H.5 SFRSYM    DATA     BIT       PSYSTICK1
      00000087H   SFRSYM    DATA     BYTE      PCON
      00000088H   SFRSYM    DATA     BYTE      TCON
      00000082H   SFRSYM    DATA     WORD      DPTR
      00000088H.2 SFRSYM    DATA     BIT       IF0
      000000AEH   SFRSYM    DATA     WORD      TIM2__ARR
      000000A1H   SFRSYM    DATA     BYTE      TIM2_CR0
      000000A6H   SFRSYM    DATA     WORD      TIM3__ARR
      0000009CH   SFRSYM    DATA     BYTE      TIM3_CR0
      000000A9H   SFRSYM    DATA     BYTE      TIM2_CR1
      00000096H   SFRSYM    DATA     WORD      TIM4__ARR
      0000009EH   SFRSYM    DATA     BYTE      TIM4_CR0
      0000009DH   SFRSYM    DATA     BYTE      TIM3_CR1
      000000F8H   SFRSYM    DATA     BYTE      DRV_OUT
      0000009FH   SFRSYM    DATA     BYTE      TIM4_CR1
      000000E0H   SFRSYM    DATA     BYTE      ACC
      000000DBH   SFRSYM    DATA     BYTE      LVSR
      000000A8H.4 SFRSYM    DATA     BIT       ES0
      00000085H   SFRSYM    DATA     BYTE      FLA_CR
      000000C0H.4 SFRSYM    DATA     BIT       PADC0
      000000B8H   SFRSYM    DATA     BYTE      IP0
      000000C0H.5 SFRSYM    DATA     BIT       PADC1
      000000C0H   SFRSYM    DATA     BYTE      IP1
      000000C8H   SFRSYM    DATA     BYTE      IP2
      00000098H.2 SFRSYM    DATA     BIT       RB8
      000000D8H   SFRSYM    DATA     BYTE      IP3
      000000A8H   SFRSYM    DATA     BIT       EX0
      00000098H.3 SFRSYM    DATA     BIT       TB8
      000000A8H.2 SFRSYM    DATA     BIT       EX1
      000000D0H   SFRSYM    DATA     BIT       P
      0000008AH   SFRSYM    DATA     BYTE      UT2_CR
      00000089H   SFRSYM    DATA     BYTE      UT2_DR
      00000098H.5 SFRSYM    DATA     BIT       SM2
      000000D8H.6 SFRSYM    DATA     BIT       PDMA0
      000000D8H.7 SFRSYM    DATA     BIT       PDMA1
      000000D0H.3 SFRSYM    DATA     BIT       RS0
      000000D0H.4 SFRSYM    DATA     BIT       RS1
      000000CAH   SFRSYM    DATA     BYTE      MDU_MD
      000000C1H   SFRSYM    DATA     BYTE      MDU_CR
      000000F8H.7 SFRSYM    DATA     BIT       MOE
      000000C0H.6 SFRSYM    DATA     BIT       PCMP0
      000000C0H.7 SFRSYM    DATA     BIT       PCMP1
      00000098H.4 SFRSYM    DATA     BIT       REN
      000000D7H   SFRSYM    DATA     BYTE      CMP_SR
      000000C8H   SFRSYM    DATA     BIT       PRTC0
      000000C8H.1 SFRSYM    DATA     BIT       PRTC1
      000000B8H.6 SFRSYM    DATA     BIT       PDRV0
      000000B8H.7 SFRSYM    DATA     BIT       PDRV1
      000000D1H   SFRSYM    DATA     BYTE      P1_IE
      000000D3H   SFRSYM    DATA     BYTE      P2_IE
      000000D2H   SFRSYM    DATA     BYTE      P1_IF
LX51 LINKER/LOCATER V4.66.30.0                                                        04/09/2024  13:54:58  PAGE 41


      000000D4H   SFRSYM    DATA     BYTE      P2_IF
      000000ACH   SFRSYM    DATA     WORD      TIM2__DR
      000000FCH   SFRSYM    DATA     BYTE      P0_OE
      000000A4H   SFRSYM    DATA     WORD      TIM3__DR
      000000FDH   SFRSYM    DATA     BYTE      P1_OE
      00000094H   SFRSYM    DATA     WORD      TIM4__DR
      000000D0H.5 SFRSYM    DATA     BIT       F0
      000000FEH   SFRSYM    DATA     BYTE      P2_OE
      000000D0H.1 SFRSYM    DATA     BIT       F1
      000000FFH   SFRSYM    DATA     BYTE      P3_OE
      00000080H   SFRSYM    DATA     BIT       GP00
      000000E9H   SFRSYM    DATA     BYTE      P4_OE
      00000090H   SFRSYM    DATA     BIT       GP10
      00000080H.1 SFRSYM    DATA     BIT       GP01
      000000A8H.6 SFRSYM    DATA     BIT       RTCIE
      000000A0H   SFRSYM    DATA     BIT       GP20
      00000090H.1 SFRSYM    DATA     BIT       GP11
      00000080H.2 SFRSYM    DATA     BIT       GP02
      000000B0H   SFRSYM    DATA     BIT       GP30
      000000A0H.1 SFRSYM    DATA     BIT       GP21
      00000090H.2 SFRSYM    DATA     BIT       GP12
      00000080H.3 SFRSYM    DATA     BIT       GP03
      000000D8H.2 SFRSYM    DATA     BIT       PI2C_UT10
      000000B8H   SFRSYM    DATA     BIT       PLVW0
      000000A8H.1 SFRSYM    DATA     BIT       TSDIE
      000000D0H   SFRSYM    DATA     BYTE      PSW
      000000B0H.1 SFRSYM    DATA     BIT       GP31
      000000A0H.2 SFRSYM    DATA     BIT       GP22
      00000090H.3 SFRSYM    DATA     BIT       GP13
      00000080H.4 SFRSYM    DATA     BIT       GP04
      000000D8H.3 SFRSYM    DATA     BIT       PI2C_UT11
      000000B8H.1 SFRSYM    DATA     BIT       PLVW1
      000000A8H.3 SFRSYM    DATA     BIT       SPIIE
      00000088H.5 SFRSYM    DATA     BIT       TSDIF
      000000B0H.2 SFRSYM    DATA     BIT       GP32
      000000A0H.3 SFRSYM    DATA     BIT       GP23
      00000090H.4 SFRSYM    DATA     BIT       GP14
      00000080H.5 SFRSYM    DATA     BIT       GP05
      000000E8H.2 SFRSYM    DATA     BIT       GP42
      000000B0H.3 SFRSYM    DATA     BIT       GP33
      000000A0H.4 SFRSYM    DATA     BIT       GP24
      00000090H.5 SFRSYM    DATA     BIT       GP15
      00000080H.6 SFRSYM    DATA     BIT       GP06
      00000088H   SFRSYM    DATA     BIT       IT00

      01001559H   BLOCK     CODE     ---       LVL=0
      01001559H   LINE      CODE     ---       #34
      01001559H   LINE      CODE     ---       #35
      01001559H   LINE      CODE     ---       #38
      01001559H   LINE      CODE     ---       #39
      0100155FH   LINE      CODE     ---       #40
      0100155FH   LINE      CODE     ---       #41
      01001569H   LINE      CODE     ---       #42
      0100156FH   LINE      CODE     ---       #43
      0100156FH   LINE      CODE     ---       #44
      0100156FH   LINE      CODE     ---       #48
      01001579H   LINE      CODE     ---       #49
      01001579H   LINE      CODE     ---       #50
      0100157FH   LINE      CODE     ---       #51
      0100157FH   LINE      CODE     ---       #52
      010015B0H   LINE      CODE     ---       #53
      010015B0H   LINE      CODE     ---       #54
      010015B0H   LINE      CODE     ---       #55
      010015B0H   LINE      CODE     ---       #56
      010015B6H   LINE      CODE     ---       #57
LX51 LINKER/LOCATER V4.66.30.0                                                        04/09/2024  13:54:58  PAGE 42


      010015B6H   LINE      CODE     ---       #58
      010015B6H   LINE      CODE     ---       #59
      010015B8H   LINE      CODE     ---       #61
      010015B8H   LINE      CODE     ---       #62
      010015BBH   LINE      CODE     ---       #64
      010015D1H   LINE      CODE     ---       #65
      010015D1H   LINE      CODE     ---       #66
      010015D5H   LINE      CODE     ---       #67
      010015DAH   LINE      CODE     ---       #68
      010015DAH   LINE      CODE     ---       #69
      010015DAH   LINE      CODE     ---       #70
      010015DBH   LINE      CODE     ---       #71
      010015DBH   LINE      CODE     ---       #72
      010015DBH   LINE      CODE     ---       #73
      010015DBH   LINE      CODE     ---       #74
      010015E1H   LINE      CODE     ---       #75
      010015E1H   LINE      CODE     ---       #76
      010015E1H   LINE      CODE     ---       #77
      010015E3H   LINE      CODE     ---       #79
      010015E3H   LINE      CODE     ---       #80
      010015E6H   LINE      CODE     ---       #95
      010015E6H   LINE      CODE     ---       #96
      010015ECH   LINE      CODE     ---       #97
      010015ECH   LINE      CODE     ---       #99
      010015ECH   LINE      CODE     ---       #100
      010015ECH   LINE      CODE     ---       #101
      010015EDH   LINE      CODE     ---       #102
      010015EDH   LINE      CODE     ---       #103
      010015EDH   LINE      CODE     ---       #105
      010015F3H   LINE      CODE     ---       #106
      010015F3H   LINE      CODE     ---       #107
      010015F3H   LINE      CODE     ---       #108
      010015F5H   LINE      CODE     ---       #110
      010015F5H   LINE      CODE     ---       #111
      010015F8H   LINE      CODE     ---       #112
      01001603H   LINE      CODE     ---       #113
      01001603H   LINE      CODE     ---       #114
      01001609H   LINE      CODE     ---       #115
      01001609H   LINE      CODE     ---       #116
      01001609H   LINE      CODE     ---       #117
      01001609H   LINE      CODE     ---       #118
      0100160AH   LINE      CODE     ---       #119
      0100160AH   LINE      CODE     ---       #120
      0100160AH   LINE      CODE     ---       #121
      01001610H   LINE      CODE     ---       #122
      01001610H   LINE      CODE     ---       #123
      01001610H   LINE      CODE     ---       #124
      01001612H   LINE      CODE     ---       #126
      01001612H   LINE      CODE     ---       #128
      01001612H   LINE      CODE     ---       #129
      01001619H   LINE      CODE     ---       #130
      0100161CH   LINE      CODE     ---       #131
      0100161FH   LINE      CODE     ---       #132
      0100161FH   LINE      CODE     ---       #172
      0100161FH   LINE      CODE     ---       #173
      01001622H   LINE      CODE     ---       #174
      01001622H   LINE      CODE     ---       #182
      01001622H   LINE      CODE     ---       #183
      01001622H   LINE      CODE     ---       #184
      01001622H   LINE      CODE     ---       #186
      01001622H   LINE      CODE     ---       #187
      01001622H   LINE      CODE     ---       #188
      01001628H   LINE      CODE     ---       #189
      01001628H   LINE      CODE     ---       #190
      0100162EH   LINE      CODE     ---       #191
LX51 LINKER/LOCATER V4.66.30.0                                                        04/09/2024  13:54:58  PAGE 43


      0100162FH   LINE      CODE     ---       #193
      0100162FH   LINE      CODE     ---       #194
      01001632H   LINE      CODE     ---       #195
      01001632H   LINE      CODE     ---       #196
      01001632H   LINE      CODE     ---       #197
      01001632H   LINE      CODE     ---       #198
      01001632H   LINE      CODE     ---       #199
      01001632H   LINE      CODE     ---       #200
      01001642H   LINE      CODE     ---       #201
      01001642H   LINE      CODE     ---       #202
      01001648H   LINE      CODE     ---       #203
      0100164FH   LINE      CODE     ---       #204
      01001659H   LINE      CODE     ---       #205
      01001659H   LINE      CODE     ---       #206
      01001659H   LINE      CODE     ---       #207
      0100165AH   LINE      CODE     ---       #208
      0100165AH   LINE      CODE     ---       #209
      0100165AH   LINE      CODE     ---       #210
      01001661H   LINE      CODE     ---       #211
      01001661H   LINE      CODE     ---       #212
      01001665H   LINE      CODE     ---       #228
      01001665H   LINE      CODE     ---       #229
      0100166AH   LINE      CODE     ---       #230
      01001671H   LINE      CODE     ---       #231
      01001675H   LINE      CODE     ---       #232
      01001677H   LINE      CODE     ---       #233
      01001677H   LINE      CODE     ---       #235
      01001677H   LINE      CODE     ---       #237
      01001689H   LINE      CODE     ---       #238
      01001689H   LINE      CODE     ---       #239
      0100168DH   LINE      CODE     ---       #240
      01001694H   LINE      CODE     ---       #241
      0100169BH   LINE      CODE     ---       #242
      0100169BH   LINE      CODE     ---       #243
      0100169BH   LINE      CODE     ---       #244
      0100169BH   LINE      CODE     ---       #245
      0100169DH   LINE      CODE     ---       #246
      0100169DH   LINE      CODE     ---       #247
      0100169DH   LINE      CODE     ---       #248
      0100169DH   LINE      CODE     ---       #249
      010016A3H   LINE      CODE     ---       #250
      010016A3H   LINE      CODE     ---       #251
      010016A6H   LINE      CODE     ---       #252
      010016ACH   LINE      CODE     ---       #253
      010016ACH   LINE      CODE     ---       #254
      010016AFH   LINE      CODE     ---       #255
      010016B2H   LINE      CODE     ---       #256
      010016B3H   LINE      CODE     ---       #285
      010016BDH   LINE      CODE     ---       #286
      010016BDH   LINE      CODE     ---       #287
      010016C1H   LINE      CODE     ---       #288
      010016C1H   LINE      CODE     ---       #289
      010016C1H   LINE      CODE     ---       #290
      010016C1H   LINE      CODE     ---       #291
      010016C1H   LINE      CODE     ---       #292
      010016C1H   LINE      CODE     ---       #293
      010016C1H   LINE      CODE     ---       #294
      ---         BLOCKEND  ---      ---       LVL=0

      ---         MODULE    ---      ---       MOTORCONTROLFUNCTION
      02000197H   PUBLIC    XDATA    ---       mcCurOffset
      02000195H   PUBLIC    XDATA    INT       Align_Value
      0200018CH   PUBLIC    XDATA    ---       Align_Calib
      01002F78H   PUBLIC    CODE     ---       Motor_Init
      01002AE1H   PUBLIC    CODE     ---       Motor_Ready
LX51 LINKER/LOCATER V4.66.30.0                                                        04/09/2024  13:54:58  PAGE 44


      01002361H   PUBLIC    CODE     ---       GetCurrentOffset
      01002E0DH   PUBLIC    CODE     ---       VariablesPreInit
      01002567H   PUBLIC    CODE     ---       MotorcontrolInit
      01002E3FH   PUBLIC    CODE     ---       Motor_TailWind
      010022A4H   PUBLIC    CODE     ---       Motor_Open
      01001C2DH   PUBLIC    CODE     ---       Motor_Align
      01001987H   PUBLIC    CODE     ---       FOC_Init
      000000E8H.3 SFRSYM    DATA     BIT       GP43
      000000B0H.4 SFRSYM    DATA     BIT       GP34
      000000A0H.5 SFRSYM    DATA     BIT       GP25
      00000090H.6 SFRSYM    DATA     BIT       GP16
      00000080H.7 SFRSYM    DATA     BIT       GP07
      00000088H.1 SFRSYM    DATA     BIT       IT01
      00000088H.3 SFRSYM    DATA     BIT       IT10
      000000E8H.4 SFRSYM    DATA     BIT       GP44
      000000B0H.5 SFRSYM    DATA     BIT       GP35
      000000A0H.6 SFRSYM    DATA     BIT       GP26
      00000090H.7 SFRSYM    DATA     BIT       GP17
      00000080H   SFRSYM    DATA     BYTE      P0
      00000088H.4 SFRSYM    DATA     BIT       IT11
      000000C9H   SFRSYM    DATA     BYTE      RST_SR
      000000D9H   SFRSYM    DATA     BYTE      EVT_FILT
      000000E8H.5 SFRSYM    DATA     BIT       GP45
      000000B0H.6 SFRSYM    DATA     BIT       GP36
      000000A0H.7 SFRSYM    DATA     BIT       GP27
      00000090H   SFRSYM    DATA     BYTE      P1
      000000B0H.7 SFRSYM    DATA     BIT       GP37
      000000A0H   SFRSYM    DATA     BYTE      P2
      000000B0H   SFRSYM    DATA     BYTE      P3
      000000E8H   SFRSYM    DATA     BYTE      P4
      000000D0H.6 SFRSYM    DATA     BIT       AC
      000000A8H.7 SFRSYM    DATA     BIT       EA
      000000D5H   SFRSYM    DATA     BYTE      CMP_CR0
      000000D6H   SFRSYM    DATA     BYTE      CMP_CR1
      000000C6H   SFRSYM    DATA     WORD      MDU_A
      000000DAH   SFRSYM    DATA     BYTE      CMP_CR2
      000000C4H   SFRSYM    DATA     WORD      MDU_B
      000000B8H.2 SFRSYM    DATA     BIT       PX00
      000000DCH   SFRSYM    DATA     BYTE      CMP_CR3
      000000F8H   SFRSYM    DATA     BIT       OISUH
      000000C2H   SFRSYM    DATA     WORD      MDU_C
      000000B8H.3 SFRSYM    DATA     BIT       PX01
      000000B8H.4 SFRSYM    DATA     BIT       PX10
      000000E1H   SFRSYM    DATA     BYTE      CMP_CR4
      000000F8H.2 SFRSYM    DATA     BIT       OISVH
      000000CBH   SFRSYM    DATA     BYTE      MDU_D
      000000B8H.5 SFRSYM    DATA     BIT       PX11
      000000F8H.4 SFRSYM    DATA     BIT       OISWH
      000000F8H.1 SFRSYM    DATA     BIT       OISUL
      000000A8H   SFRSYM    DATA     BYTE      IE
      000000F8H.3 SFRSYM    DATA     BIT       OISVL
      000000F9H   SFRSYM    DATA     BYTE      PI_CR
      000000F8H.5 SFRSYM    DATA     BIT       OISWL
      000000D8H   SFRSYM    DATA     BIT       PCMP30
      000000AAH   SFRSYM    DATA     WORD      TIM2__CNTR
      000000D8H.1 SFRSYM    DATA     BIT       PCMP31
      000000A2H   SFRSYM    DATA     WORD      TIM3__CNTR
      00000092H   SFRSYM    DATA     WORD      TIM4__CNTR
      00000098H   SFRSYM    DATA     BIT       RI
      00000098H.6 SFRSYM    DATA     BIT       UT_MOD0
      00000098H.7 SFRSYM    DATA     BIT       UT_MOD1
      000000D0H.7 SFRSYM    DATA     BIT       CY
      00000098H.1 SFRSYM    DATA     BIT       TI
      000000C0H.2 SFRSYM    DATA     BIT       PTIM10
      00000084H   SFRSYM    DATA     BYTE      FLA_KEY
LX51 LINKER/LOCATER V4.66.30.0                                                        04/09/2024  13:54:58  PAGE 45


      000000C0H   SFRSYM    DATA     BIT       PTIM20
      000000C0H.3 SFRSYM    DATA     BIT       PTIM11
      00000098H   SFRSYM    DATA     BYTE      UT_CR
      000000C8H.2 SFRSYM    DATA     BIT       PTIM30
      000000C0H.1 SFRSYM    DATA     BIT       PTIM21
      00000099H   SFRSYM    DATA     BYTE      UT_DR
      000000C8H.3 SFRSYM    DATA     BIT       PTIM31
      000000C8H.6 SFRSYM    DATA     BIT       PTIM40
      000000C8H.7 SFRSYM    DATA     BIT       PTIM41
      000000D0H.2 SFRSYM    DATA     BIT       OV
      0000009AH   SFRSYM    DATA     WORD      UT_BAUD
      000000D8H.4 SFRSYM    DATA     BIT       PSPI_UT20
      000000D8H.5 SFRSYM    DATA     BIT       PSPI_UT21
      000000C8H.4 SFRSYM    DATA     BIT       PSYSTICK0
      000000C8H.5 SFRSYM    DATA     BIT       PSYSTICK1
      00000087H   SFRSYM    DATA     BYTE      PCON
      00000088H   SFRSYM    DATA     BYTE      TCON
      00000082H   SFRSYM    DATA     WORD      DPTR
      00000088H.2 SFRSYM    DATA     BIT       IF0
      000000AEH   SFRSYM    DATA     WORD      TIM2__ARR
      000000A1H   SFRSYM    DATA     BYTE      TIM2_CR0
      000000A6H   SFRSYM    DATA     WORD      TIM3__ARR
      0000009CH   SFRSYM    DATA     BYTE      TIM3_CR0
      000000A9H   SFRSYM    DATA     BYTE      TIM2_CR1
      00000096H   SFRSYM    DATA     WORD      TIM4__ARR
      0000009EH   SFRSYM    DATA     BYTE      TIM4_CR0
      0000009DH   SFRSYM    DATA     BYTE      TIM3_CR1
      000000F8H   SFRSYM    DATA     BYTE      DRV_OUT
      0000009FH   SFRSYM    DATA     BYTE      TIM4_CR1
      000000E0H   SFRSYM    DATA     BYTE      ACC
      000000DBH   SFRSYM    DATA     BYTE      LVSR
      000000A8H.4 SFRSYM    DATA     BIT       ES0
      00000085H   SFRSYM    DATA     BYTE      FLA_CR
      000000C0H.4 SFRSYM    DATA     BIT       PADC0
      000000B8H   SFRSYM    DATA     BYTE      IP0
      000000C0H.5 SFRSYM    DATA     BIT       PADC1
      000000C0H   SFRSYM    DATA     BYTE      IP1
      000000C8H   SFRSYM    DATA     BYTE      IP2
      00000098H.2 SFRSYM    DATA     BIT       RB8
      000000D8H   SFRSYM    DATA     BYTE      IP3
      000000A8H   SFRSYM    DATA     BIT       EX0
      00000098H.3 SFRSYM    DATA     BIT       TB8
      000000A8H.2 SFRSYM    DATA     BIT       EX1
      000000D0H   SFRSYM    DATA     BIT       P
      0000008AH   SFRSYM    DATA     BYTE      UT2_CR
      00000089H   SFRSYM    DATA     BYTE      UT2_DR
      00000098H.5 SFRSYM    DATA     BIT       SM2
      000000D8H.6 SFRSYM    DATA     BIT       PDMA0
      000000D8H.7 SFRSYM    DATA     BIT       PDMA1
      000000D0H.3 SFRSYM    DATA     BIT       RS0
      000000D0H.4 SFRSYM    DATA     BIT       RS1
      000000CAH   SFRSYM    DATA     BYTE      MDU_MD
      000000C1H   SFRSYM    DATA     BYTE      MDU_CR
      000000F8H.7 SFRSYM    DATA     BIT       MOE
      000000C0H.6 SFRSYM    DATA     BIT       PCMP0
      000000C0H.7 SFRSYM    DATA     BIT       PCMP1
      00000098H.4 SFRSYM    DATA     BIT       REN
      000000D7H   SFRSYM    DATA     BYTE      CMP_SR
      000000C8H   SFRSYM    DATA     BIT       PRTC0
      000000C8H.1 SFRSYM    DATA     BIT       PRTC1
      000000B8H.6 SFRSYM    DATA     BIT       PDRV0
      000000B8H.7 SFRSYM    DATA     BIT       PDRV1
      000000D1H   SFRSYM    DATA     BYTE      P1_IE
      000000D3H   SFRSYM    DATA     BYTE      P2_IE
      000000D2H   SFRSYM    DATA     BYTE      P1_IF
LX51 LINKER/LOCATER V4.66.30.0                                                        04/09/2024  13:54:58  PAGE 46


      000000D4H   SFRSYM    DATA     BYTE      P2_IF
      000000ACH   SFRSYM    DATA     WORD      TIM2__DR
      000000FCH   SFRSYM    DATA     BYTE      P0_OE
      000000A4H   SFRSYM    DATA     WORD      TIM3__DR
      000000FDH   SFRSYM    DATA     BYTE      P1_OE
      00000094H   SFRSYM    DATA     WORD      TIM4__DR
      000000D0H.5 SFRSYM    DATA     BIT       F0
      000000FEH   SFRSYM    DATA     BYTE      P2_OE
      000000D0H.1 SFRSYM    DATA     BIT       F1
      000000FFH   SFRSYM    DATA     BYTE      P3_OE
      00000080H   SFRSYM    DATA     BIT       GP00
      000000E9H   SFRSYM    DATA     BYTE      P4_OE
      00000090H   SFRSYM    DATA     BIT       GP10
      00000080H.1 SFRSYM    DATA     BIT       GP01
      000000A8H.6 SFRSYM    DATA     BIT       RTCIE
      000000A0H   SFRSYM    DATA     BIT       GP20
      00000090H.1 SFRSYM    DATA     BIT       GP11
      00000080H.2 SFRSYM    DATA     BIT       GP02
      000000B0H   SFRSYM    DATA     BIT       GP30
      000000A0H.1 SFRSYM    DATA     BIT       GP21
      00000090H.2 SFRSYM    DATA     BIT       GP12
      00000080H.3 SFRSYM    DATA     BIT       GP03
      000000D8H.2 SFRSYM    DATA     BIT       PI2C_UT10
      000000B8H   SFRSYM    DATA     BIT       PLVW0
      000000A8H.1 SFRSYM    DATA     BIT       TSDIE
      000000D0H   SFRSYM    DATA     BYTE      PSW
      000000B0H.1 SFRSYM    DATA     BIT       GP31
      000000A0H.2 SFRSYM    DATA     BIT       GP22
      00000090H.3 SFRSYM    DATA     BIT       GP13
      00000080H.4 SFRSYM    DATA     BIT       GP04
      000000D8H.3 SFRSYM    DATA     BIT       PI2C_UT11
      000000B8H.1 SFRSYM    DATA     BIT       PLVW1
      000000A8H.3 SFRSYM    DATA     BIT       SPIIE
      00000088H.5 SFRSYM    DATA     BIT       TSDIF
      000000B0H.2 SFRSYM    DATA     BIT       GP32
      000000A0H.3 SFRSYM    DATA     BIT       GP23
      00000090H.4 SFRSYM    DATA     BIT       GP14
      00000080H.5 SFRSYM    DATA     BIT       GP05
      000000E8H.2 SFRSYM    DATA     BIT       GP42
      000000B0H.3 SFRSYM    DATA     BIT       GP33
      000000A0H.4 SFRSYM    DATA     BIT       GP24
      00000090H.5 SFRSYM    DATA     BIT       GP15
      00000080H.6 SFRSYM    DATA     BIT       GP06
      00000088H   SFRSYM    DATA     BIT       IT00

      01001987H   BLOCK     CODE     ---       LVL=0
      01001987H   LINE      CODE     ---       #28
      01001987H   LINE      CODE     ---       #29
      01001987H   LINE      CODE     ---       #30
      0100198EH   LINE      CODE     ---       #32
      01001992H   LINE      CODE     ---       #33
      01001996H   LINE      CODE     ---       #35
      0100199DH   LINE      CODE     ---       #37
      010019A1H   LINE      CODE     ---       #38
      010019A5H   LINE      CODE     ---       #40
      010019ABH   LINE      CODE     ---       #42
      010019B2H   LINE      CODE     ---       #43
      010019B8H   LINE      CODE     ---       #44
      010019BCH   LINE      CODE     ---       #45
      010019C0H   LINE      CODE     ---       #47
      010019C4H   LINE      CODE     ---       #48
      010019C6H   LINE      CODE     ---       #49
      010019CCH   LINE      CODE     ---       #50
      010019D0H   LINE      CODE     ---       #52
      010019D6H   LINE      CODE     ---       #53
LX51 LINKER/LOCATER V4.66.30.0                                                        04/09/2024  13:54:58  PAGE 47


      010019DCH   LINE      CODE     ---       #54
      010019E2H   LINE      CODE     ---       #55
      010019E6H   LINE      CODE     ---       #62
      010019E6H   LINE      CODE     ---       #63
      010019ECH   LINE      CODE     ---       #64
      010019ECH   LINE      CODE     ---       #67
      010019F2H   LINE      CODE     ---       #69
      010019FBH   LINE      CODE     ---       #70
      01001A03H   LINE      CODE     ---       #71
      01001A0BH   LINE      CODE     ---       #72
      01001A13H   LINE      CODE     ---       #75
      01001A1DH   LINE      CODE     ---       #76
      01001A25H   LINE      CODE     ---       #77
      01001A2FH   LINE      CODE     ---       #78
      01001A34H   LINE      CODE     ---       #79
      01001A3EH   LINE      CODE     ---       #80
      01001A47H   LINE      CODE     ---       #81
      01001A51H   LINE      CODE     ---       #83
      01001A56H   LINE      CODE     ---       #85
      01001A5DH   LINE      CODE     ---       #86
      01001A67H   LINE      CODE     ---       #87
      01001A6FH   LINE      CODE     ---       #89
      01001A76H   LINE      CODE     ---       #91
      01001A7FH   LINE      CODE     ---       #92
      01001A7FH   LINE      CODE     ---       #93
      01001A83H   LINE      CODE     ---       #94
      01001A85H   LINE      CODE     ---       #96
      01001A85H   LINE      CODE     ---       #97
      01001A89H   LINE      CODE     ---       #98
      01001A89H   LINE      CODE     ---       #102
      01001A89H   LINE      CODE     ---       #103
      01001A90H   LINE      CODE     ---       #104
      01001A90H   LINE      CODE     ---       #113
      01001A90H   LINE      CODE     ---       #114
      01001A97H   LINE      CODE     ---       #115
      01001A97H   LINE      CODE     ---       #121
      01001A97H   LINE      CODE     ---       #122
      01001A9CH   LINE      CODE     ---       #123
      01001AA2H   LINE      CODE     ---       #124
      01001AA8H   LINE      CODE     ---       #126
      01001AAFH   LINE      CODE     ---       #127
      01001AB2H   LINE      CODE     ---       #128
      01001AB2H   LINE      CODE     ---       #200
      01001AB2H   LINE      CODE     ---       #201
      01001AB9H   LINE      CODE     ---       #202
      01001AB9H   LINE      CODE     ---       #204
      01001AB9H   LINE      CODE     ---       #206
      01001AC0H   LINE      CODE     ---       #207
      01001ACFH   LINE      CODE     ---       #208
      01001ACFH   LINE      CODE     ---       #231
      01001ACFH   LINE      CODE     ---       #232
      01001ACFH   LINE      CODE     ---       #239
      01001AD6H   LINE      CODE     ---       #241
      01001ADAH   LINE      CODE     ---       #242
      ---         BLOCKEND  ---      ---       LVL=0

      01001C2DH   BLOCK     CODE     ---       LVL=0
      01001C2DH   BLOCK     CODE     NEAR LAB  LVL=1
      00000004H   SYMBOL    DATA     INT       tmpUD_Value
      ---         BLOCKEND  ---      ---       LVL=1
      01001C2DH   LINE      CODE     ---       #263
      01001C2DH   LINE      CODE     ---       #264
      01001C2DH   LINE      CODE     ---       #265
      01001C30H   LINE      CODE     ---       #266
      01001C3AH   LINE      CODE     ---       #267
LX51 LINKER/LOCATER V4.66.30.0                                                        04/09/2024  13:54:58  PAGE 48


      01001C3AH   LINE      CODE     ---       #268
      01001C3EH   LINE      CODE     ---       #270
      01001C41H   LINE      CODE     ---       #271
      01001C43H   LINE      CODE     ---       #273
      01001C4AH   LINE      CODE     ---       #274
      01001C4EH   LINE      CODE     ---       #276
      01001C55H   LINE      CODE     ---       #277
      01001C59H   LINE      CODE     ---       #278
      01001C5DH   LINE      CODE     ---       #279
      01001C5FH   LINE      CODE     ---       #283
      01001C65H   LINE      CODE     ---       #284
      01001C65H   LINE      CODE     ---       #285
      01001C73H   LINE      CODE     ---       #286
      01001C73H   LINE      CODE     ---       #287
      01001C75H   LINE      CODE     ---       #289
      01001C75H   LINE      CODE     ---       #290
      01001C89H   LINE      CODE     ---       #291
      01001C8EH   LINE      CODE     ---       #292
      01001C8EH   LINE      CODE     ---       #294
      01001C98H   LINE      CODE     ---       #295
      01001C9FH   LINE      CODE     ---       #296
      01001CA6H   LINE      CODE     ---       #299
      01001CBCH   LINE      CODE     ---       #300
      01001CBEH   LINE      CODE     ---       #301
      01001CBFH   LINE      CODE     ---       #303
      01001CBFH   LINE      CODE     ---       #304
      01001CCAH   LINE      CODE     ---       #305
      01001CCAH   LINE      CODE     ---       #306
      01001CD0H   LINE      CODE     ---       #307
      01001CD1H   LINE      CODE     ---       #308
      01001CDAH   LINE      CODE     ---       #309
      01001CDAH   LINE      CODE     ---       #310
      01001CE4H   LINE      CODE     ---       #311
      01001CE5H   LINE      CODE     ---       #313
      01001CE5H   LINE      CODE     ---       #314
      01001CEEH   LINE      CODE     ---       #315
      01001CEEH   LINE      CODE     ---       #316
      01001D14H   LINE      CODE     ---       #317
      01001D2FH   LINE      CODE     ---       #318
      01001D2FH   LINE      CODE     ---       #319
      01001D34H   LINE      CODE     ---       #320
      01001D3AH   LINE      CODE     ---       #321
      01001D3CH   LINE      CODE     ---       #322
      01001D58H   LINE      CODE     ---       #323
      01001D58H   LINE      CODE     ---       #324
      01001D5DH   LINE      CODE     ---       #325
      01001D68H   LINE      CODE     ---       #326
      01001D68H   LINE      CODE     ---       #327
      01001D71H   LINE      CODE     ---       #328
      01001D77H   LINE      CODE     ---       #329
      01001D77H   LINE      CODE     ---       #330
      01001D77H   LINE      CODE     ---       #331
      01001D77H   LINE      CODE     ---       #332
      ---         BLOCKEND  ---      ---       LVL=0

      010022A4H   BLOCK     CODE     ---       LVL=0
      010022A4H   LINE      CODE     ---       #341
      010022A4H   LINE      CODE     ---       #342
      010022A4H   LINE      CODE     ---       #349
      010022ABH   LINE      CODE     ---       #350
      010022ABH   LINE      CODE     ---       #351
      010022AFH   LINE      CODE     ---       #352
      010022AFH   LINE      CODE     ---       #353
      010022B2H   LINE      CODE     ---       #356
      010022BCH   LINE      CODE     ---       #369
LX51 LINKER/LOCATER V4.66.30.0                                                        04/09/2024  13:54:58  PAGE 49


      010022C6H   LINE      CODE     ---       #370
      010022CEH   LINE      CODE     ---       #408
      010022CEH   LINE      CODE     ---       #409
      010022D8H   LINE      CODE     ---       #410
      010022DFH   LINE      CODE     ---       #411
      010022E8H   LINE      CODE     ---       #412
      010022EFH   LINE      CODE     ---       #413
      010022F5H   LINE      CODE     ---       #414
      010022FEH   LINE      CODE     ---       #415
      01002305H   LINE      CODE     ---       #416
      0100230DH   LINE      CODE     ---       #417
      01002316H   LINE      CODE     ---       #419
      01002320H   LINE      CODE     ---       #420
      01002326H   LINE      CODE     ---       #421
      01002326H   LINE      CODE     ---       #424
      0100232DH   LINE      CODE     ---       #426
      01002336H   LINE      CODE     ---       #427
      01002336H   LINE      CODE     ---       #428
      0100233DH   LINE      CODE     ---       #429
      0100233FH   LINE      CODE     ---       #431
      0100233FH   LINE      CODE     ---       #432
      01002346H   LINE      CODE     ---       #433
      01002346H   LINE      CODE     ---       #436
      01002355H   LINE      CODE     ---       #438
      0100235CH   LINE      CODE     ---       #439
      01002360H   LINE      CODE     ---       #441
      ---         BLOCKEND  ---      ---       LVL=0

      01002E3FH   BLOCK     CODE     ---       LVL=0
      01002E3FH   LINE      CODE     ---       #449
      01002E3FH   LINE      CODE     ---       #450
      01002E3FH   LINE      CODE     ---       #451
      01002E49H   LINE      CODE     ---       #452
      01002E49H   LINE      CODE     ---       #453
      01002E4FH   LINE      CODE     ---       #454
      01002E4FH   LINE      CODE     ---       #455
      01002E56H   LINE      CODE     ---       #456
      01002E56H   LINE      CODE     ---       #457
      01002E5AH   LINE      CODE     ---       #458
      01002E5DH   LINE      CODE     ---       #459
      01002E5DH   LINE      CODE     ---       #460
      01002E60H   LINE      CODE     ---       #461
      01002E60H   LINE      CODE     ---       #463
      01002E60H   LINE      CODE     ---       #464
      01002E66H   LINE      CODE     ---       #465
      01002E6FH   LINE      CODE     ---       #466
      01002E6FH   LINE      CODE     ---       #467
      01002E6FH   LINE      CODE     ---       #468
      ---         BLOCKEND  ---      ---       LVL=0

      01002567H   BLOCK     CODE     ---       LVL=0
      01002567H   LINE      CODE     ---       #489
      01002567H   LINE      CODE     ---       #490
      01002567H   LINE      CODE     ---       #492
      0100256AH   LINE      CODE     ---       #495
      01002579H   LINE      CODE     ---       #497
      01002588H   LINE      CODE     ---       #500
      0100258DH   LINE      CODE     ---       #504
      0100258DH   LINE      CODE     ---       #505
      01002591H   LINE      CODE     ---       #506
      01002591H   LINE      CODE     ---       #514
      0100259EH   LINE      CODE     ---       #516
      010025ADH   LINE      CODE     ---       #518
      010025BCH   LINE      CODE     ---       #519
      010025C6H   LINE      CODE     ---       #520
LX51 LINKER/LOCATER V4.66.30.0                                                        04/09/2024  13:54:58  PAGE 50


      010025D0H   LINE      CODE     ---       #521
      010025DAH   LINE      CODE     ---       #523
      010025E9H   LINE      CODE     ---       #525
      010025F8H   LINE      CODE     ---       #528
      010025FEH   LINE      CODE     ---       #529
      ---         BLOCKEND  ---      ---       LVL=0

      01002E0DH   BLOCK     CODE     ---       LVL=0
      01002E0DH   LINE      CODE     ---       #538
      01002E0DH   LINE      CODE     ---       #539
      01002E0DH   LINE      CODE     ---       #540
      01002E14H   LINE      CODE     ---       #542
      01002E17H   LINE      CODE     ---       #544
      01002E1AH   LINE      CODE     ---       #546
      01002E29H   LINE      CODE     ---       #547
      01002E38H   LINE      CODE     ---       #549
      01002E3EH   LINE      CODE     ---       #550
      ---         BLOCKEND  ---      ---       LVL=0

      01002361H   BLOCK     CODE     ---       LVL=0
      01002361H   LINE      CODE     ---       #559
      01002361H   LINE      CODE     ---       #560
      01002361H   LINE      CODE     ---       #561
      0100236AH   LINE      CODE     ---       #562
      0100236AH   LINE      CODE     ---       #563
      01002371H   LINE      CODE     ---       #564
      01002378H   LINE      CODE     ---       #567
      01002378H   LINE      CODE     ---       #568
      010023A7H   LINE      CODE     ---       #569
      010023C2H   LINE      CODE     ---       #570
      010023F7H   LINE      CODE     ---       #571
      010023F7H   LINE      CODE     ---       #598
      01002405H   LINE      CODE     ---       #600
      01002416H   LINE      CODE     ---       #601
      01002416H   LINE      CODE     ---       #602
      0100241CH   LINE      CODE     ---       #603
      0100241CH   LINE      CODE     ---       #604
      0100241CH   LINE      CODE     ---       #605
      ---         BLOCKEND  ---      ---       LVL=0

      01002AE1H   BLOCK     CODE     ---       LVL=0
      01002AE1H   LINE      CODE     ---       #615
      01002AE1H   LINE      CODE     ---       #616
      01002AE1H   LINE      CODE     ---       #617
      01002AE8H   LINE      CODE     ---       #618
      01002AE8H   LINE      CODE     ---       #619
      01002AECH   LINE      CODE     ---       #620
      01002AF3H   LINE      CODE     ---       #621
      01002AF7H   LINE      CODE     ---       #622
      01002AF9H   LINE      CODE     ---       #623
      01002B0FH   LINE      CODE     ---       #624
      01002B14H   LINE      CODE     ---       #626
      01002B1AH   LINE      CODE     ---       #628
      01002B1EH   LINE      CODE     ---       #629
      01002B20H   LINE      CODE     ---       #630
      01002B24H   LINE      CODE     ---       #631
      01002B2AH   LINE      CODE     ---       #632
      01002B2CH   LINE      CODE     ---       #633
      01002B32H   LINE      CODE     ---       #634
      01002B36H   LINE      CODE     ---       #635
      01002B36H   LINE      CODE     ---       #636
      ---         BLOCKEND  ---      ---       LVL=0

      01002F78H   BLOCK     CODE     ---       LVL=0
      01002F78H   LINE      CODE     ---       #645
LX51 LINKER/LOCATER V4.66.30.0                                                        04/09/2024  13:54:58  PAGE 51


      01002F78H   LINE      CODE     ---       #646
      01002F78H   LINE      CODE     ---       #648
      01002F8EH   LINE      CODE     ---       #649
      01002F91H   LINE      CODE     ---       #650
      01002F94H   LINE      CODE     ---       #651
      01002F9BH   LINE      CODE     ---       #652
      ---         BLOCKEND  ---      ---       LVL=0

      ---         MODULE    ---      ---       ACLOSTFUNC
      020001FFH   PUBLIC    XDATA    ---       DELL_CoastMode_Var
      010025FFH   PUBLIC    CODE     ---       _DELL_costMode_SlowWolk
      01002A26H   PUBLIC    CODE     ---       DELL_coastMode_IF_Event
      010030B8H   PUBLIC    CODE     ---       DELL_coastMode_slowWolkState
      0100307BH   PUBLIC    CODE     ---       DELL_coastMode_State
      01002E70H   PUBLIC    CODE     ---       DELL_coastMode_Process
      01003067H   PUBLIC    CODE     ---       DELL_coastMode_Initial
      000000E8H.3 SFRSYM    DATA     BIT       GP43
      000000B0H.4 SFRSYM    DATA     BIT       GP34
      000000A0H.5 SFRSYM    DATA     BIT       GP25
      00000090H.6 SFRSYM    DATA     BIT       GP16
      00000080H.7 SFRSYM    DATA     BIT       GP07
      00000088H.1 SFRSYM    DATA     BIT       IT01
      00000088H.3 SFRSYM    DATA     BIT       IT10
      000000E8H.4 SFRSYM    DATA     BIT       GP44
      000000B0H.5 SFRSYM    DATA     BIT       GP35
      000000A0H.6 SFRSYM    DATA     BIT       GP26
      00000090H.7 SFRSYM    DATA     BIT       GP17
      00000080H   SFRSYM    DATA     BYTE      P0
      00000088H.4 SFRSYM    DATA     BIT       IT11
      000000C9H   SFRSYM    DATA     BYTE      RST_SR
      000000D9H   SFRSYM    DATA     BYTE      EVT_FILT
      000000E8H.5 SFRSYM    DATA     BIT       GP45
      000000B0H.6 SFRSYM    DATA     BIT       GP36
      000000A0H.7 SFRSYM    DATA     BIT       GP27
      00000090H   SFRSYM    DATA     BYTE      P1
      000000B0H.7 SFRSYM    DATA     BIT       GP37
      000000A0H   SFRSYM    DATA     BYTE      P2
      000000B0H   SFRSYM    DATA     BYTE      P3
      000000E8H   SFRSYM    DATA     BYTE      P4
      000000D0H.6 SFRSYM    DATA     BIT       AC
      000000A8H.7 SFRSYM    DATA     BIT       EA
      000000D5H   SFRSYM    DATA     BYTE      CMP_CR0
      000000D6H   SFRSYM    DATA     BYTE      CMP_CR1
      000000C6H   SFRSYM    DATA     WORD      MDU_A
      000000DAH   SFRSYM    DATA     BYTE      CMP_CR2
      000000C4H   SFRSYM    DATA     WORD      MDU_B
      000000B8H.2 SFRSYM    DATA     BIT       PX00
      000000DCH   SFRSYM    DATA     BYTE      CMP_CR3
      000000F8H   SFRSYM    DATA     BIT       OISUH
      000000C2H   SFRSYM    DATA     WORD      MDU_C
      000000B8H.3 SFRSYM    DATA     BIT       PX01
      000000B8H.4 SFRSYM    DATA     BIT       PX10
      000000E1H   SFRSYM    DATA     BYTE      CMP_CR4
      000000F8H.2 SFRSYM    DATA     BIT       OISVH
      000000CBH   SFRSYM    DATA     BYTE      MDU_D
      000000B8H.5 SFRSYM    DATA     BIT       PX11
      000000F8H.4 SFRSYM    DATA     BIT       OISWH
      000000F8H.1 SFRSYM    DATA     BIT       OISUL
      000000A8H   SFRSYM    DATA     BYTE      IE
      000000F8H.3 SFRSYM    DATA     BIT       OISVL
      000000F9H   SFRSYM    DATA     BYTE      PI_CR
      000000F8H.5 SFRSYM    DATA     BIT       OISWL
      000000D8H   SFRSYM    DATA     BIT       PCMP30
      000000AAH   SFRSYM    DATA     WORD      TIM2__CNTR
      000000D8H.1 SFRSYM    DATA     BIT       PCMP31
LX51 LINKER/LOCATER V4.66.30.0                                                        04/09/2024  13:54:58  PAGE 52


      000000A2H   SFRSYM    DATA     WORD      TIM3__CNTR
      00000092H   SFRSYM    DATA     WORD      TIM4__CNTR
      00000098H   SFRSYM    DATA     BIT       RI
      00000098H.6 SFRSYM    DATA     BIT       UT_MOD0
      00000098H.7 SFRSYM    DATA     BIT       UT_MOD1
      000000D0H.7 SFRSYM    DATA     BIT       CY
      00000098H.1 SFRSYM    DATA     BIT       TI
      000000C0H.2 SFRSYM    DATA     BIT       PTIM10
      00000084H   SFRSYM    DATA     BYTE      FLA_KEY
      000000C0H   SFRSYM    DATA     BIT       PTIM20
      000000C0H.3 SFRSYM    DATA     BIT       PTIM11
      00000098H   SFRSYM    DATA     BYTE      UT_CR
      000000C8H.2 SFRSYM    DATA     BIT       PTIM30
      000000C0H.1 SFRSYM    DATA     BIT       PTIM21
      00000099H   SFRSYM    DATA     BYTE      UT_DR
      000000C8H.3 SFRSYM    DATA     BIT       PTIM31
      000000C8H.6 SFRSYM    DATA     BIT       PTIM40
      000000C8H.7 SFRSYM    DATA     BIT       PTIM41
      000000D0H.2 SFRSYM    DATA     BIT       OV
      0000009AH   SFRSYM    DATA     WORD      UT_BAUD
      000000D8H.4 SFRSYM    DATA     BIT       PSPI_UT20
      000000D8H.5 SFRSYM    DATA     BIT       PSPI_UT21
      000000C8H.4 SFRSYM    DATA     BIT       PSYSTICK0
      000000C8H.5 SFRSYM    DATA     BIT       PSYSTICK1
      00000087H   SFRSYM    DATA     BYTE      PCON
      00000088H   SFRSYM    DATA     BYTE      TCON
      00000082H   SFRSYM    DATA     WORD      DPTR
      00000088H.2 SFRSYM    DATA     BIT       IF0
      000000AEH   SFRSYM    DATA     WORD      TIM2__ARR
      000000A1H   SFRSYM    DATA     BYTE      TIM2_CR0
      000000A6H   SFRSYM    DATA     WORD      TIM3__ARR
      0000009CH   SFRSYM    DATA     BYTE      TIM3_CR0
      000000A9H   SFRSYM    DATA     BYTE      TIM2_CR1
      00000096H   SFRSYM    DATA     WORD      TIM4__ARR
      0000009EH   SFRSYM    DATA     BYTE      TIM4_CR0
      0000009DH   SFRSYM    DATA     BYTE      TIM3_CR1
      000000F8H   SFRSYM    DATA     BYTE      DRV_OUT
      0000009FH   SFRSYM    DATA     BYTE      TIM4_CR1
      000000E0H   SFRSYM    DATA     BYTE      ACC
      000000DBH   SFRSYM    DATA     BYTE      LVSR
      000000A8H.4 SFRSYM    DATA     BIT       ES0
      00000085H   SFRSYM    DATA     BYTE      FLA_CR
      000000C0H.4 SFRSYM    DATA     BIT       PADC0
      000000B8H   SFRSYM    DATA     BYTE      IP0
      000000C0H.5 SFRSYM    DATA     BIT       PADC1
      000000C0H   SFRSYM    DATA     BYTE      IP1
      000000C8H   SFRSYM    DATA     BYTE      IP2
      00000098H.2 SFRSYM    DATA     BIT       RB8
      000000D8H   SFRSYM    DATA     BYTE      IP3
      000000A8H   SFRSYM    DATA     BIT       EX0
      00000098H.3 SFRSYM    DATA     BIT       TB8
      000000A8H.2 SFRSYM    DATA     BIT       EX1
      000000D0H   SFRSYM    DATA     BIT       P
      0000008AH   SFRSYM    DATA     BYTE      UT2_CR
      00000089H   SFRSYM    DATA     BYTE      UT2_DR
      00000098H.5 SFRSYM    DATA     BIT       SM2
      000000D8H.6 SFRSYM    DATA     BIT       PDMA0
      000000D8H.7 SFRSYM    DATA     BIT       PDMA1
      000000D0H.3 SFRSYM    DATA     BIT       RS0
      000000D0H.4 SFRSYM    DATA     BIT       RS1
      000000CAH   SFRSYM    DATA     BYTE      MDU_MD
      000000C1H   SFRSYM    DATA     BYTE      MDU_CR
      000000F8H.7 SFRSYM    DATA     BIT       MOE
      000000C0H.6 SFRSYM    DATA     BIT       PCMP0
      000000C0H.7 SFRSYM    DATA     BIT       PCMP1
LX51 LINKER/LOCATER V4.66.30.0                                                        04/09/2024  13:54:58  PAGE 53


      00000098H.4 SFRSYM    DATA     BIT       REN
      000000D7H   SFRSYM    DATA     BYTE      CMP_SR
      000000C8H   SFRSYM    DATA     BIT       PRTC0
      000000C8H.1 SFRSYM    DATA     BIT       PRTC1
      000000B8H.6 SFRSYM    DATA     BIT       PDRV0
      000000B8H.7 SFRSYM    DATA     BIT       PDRV1
      000000D1H   SFRSYM    DATA     BYTE      P1_IE
      000000D3H   SFRSYM    DATA     BYTE      P2_IE
      000000D2H   SFRSYM    DATA     BYTE      P1_IF
      000000D4H   SFRSYM    DATA     BYTE      P2_IF
      000000ACH   SFRSYM    DATA     WORD      TIM2__DR
      000000FCH   SFRSYM    DATA     BYTE      P0_OE
      000000A4H   SFRSYM    DATA     WORD      TIM3__DR
      000000FDH   SFRSYM    DATA     BYTE      P1_OE
      00000094H   SFRSYM    DATA     WORD      TIM4__DR
      000000D0H.5 SFRSYM    DATA     BIT       F0
      000000FEH   SFRSYM    DATA     BYTE      P2_OE
      000000D0H.1 SFRSYM    DATA     BIT       F1
      000000FFH   SFRSYM    DATA     BYTE      P3_OE
      00000080H   SFRSYM    DATA     BIT       GP00
      000000E9H   SFRSYM    DATA     BYTE      P4_OE
      00000090H   SFRSYM    DATA     BIT       GP10
      00000080H.1 SFRSYM    DATA     BIT       GP01
      000000A8H.6 SFRSYM    DATA     BIT       RTCIE
      000000A0H   SFRSYM    DATA     BIT       GP20
      00000090H.1 SFRSYM    DATA     BIT       GP11
      00000080H.2 SFRSYM    DATA     BIT       GP02
      000000B0H   SFRSYM    DATA     BIT       GP30
      000000A0H.1 SFRSYM    DATA     BIT       GP21
      00000090H.2 SFRSYM    DATA     BIT       GP12
      00000080H.3 SFRSYM    DATA     BIT       GP03
      000000D8H.2 SFRSYM    DATA     BIT       PI2C_UT10
      000000B8H   SFRSYM    DATA     BIT       PLVW0
      000000A8H.1 SFRSYM    DATA     BIT       TSDIE
      000000D0H   SFRSYM    DATA     BYTE      PSW
      000000B0H.1 SFRSYM    DATA     BIT       GP31
      000000A0H.2 SFRSYM    DATA     BIT       GP22
      00000090H.3 SFRSYM    DATA     BIT       GP13
      00000080H.4 SFRSYM    DATA     BIT       GP04
      000000D8H.3 SFRSYM    DATA     BIT       PI2C_UT11
      000000B8H.1 SFRSYM    DATA     BIT       PLVW1
      000000A8H.3 SFRSYM    DATA     BIT       SPIIE
      00000088H.5 SFRSYM    DATA     BIT       TSDIF
      000000B0H.2 SFRSYM    DATA     BIT       GP32
      000000A0H.3 SFRSYM    DATA     BIT       GP23
      00000090H.4 SFRSYM    DATA     BIT       GP14
      00000080H.5 SFRSYM    DATA     BIT       GP05
      000000E8H.2 SFRSYM    DATA     BIT       GP42
      000000B0H.3 SFRSYM    DATA     BIT       GP33
      000000A0H.4 SFRSYM    DATA     BIT       GP24
      00000090H.5 SFRSYM    DATA     BIT       GP15
      00000080H.6 SFRSYM    DATA     BIT       GP06
      00000088H   SFRSYM    DATA     BIT       IT00

      01003067H   BLOCK     CODE     ---       LVL=0
      01003067H   LINE      CODE     ---       #51
      01003067H   LINE      CODE     ---       #52
      01003067H   LINE      CODE     ---       #53
      01003071H   LINE      CODE     ---       #54
      01003076H   LINE      CODE     ---       #55
      0100307AH   LINE      CODE     ---       #56
      ---         BLOCKEND  ---      ---       LVL=0

      01002E70H   BLOCK     CODE     ---       LVL=0
      01002E70H   LINE      CODE     ---       #64
LX51 LINKER/LOCATER V4.66.30.0                                                        04/09/2024  13:54:58  PAGE 54


      01002E70H   LINE      CODE     ---       #65
      01002E70H   LINE      CODE     ---       #66
      01002E7AH   LINE      CODE     ---       #67
      01002E88H   LINE      CODE     ---       #69
      01002E92H   LINE      CODE     ---       #70
      01002EA0H   LINE      CODE     ---       #72
      ---         BLOCKEND  ---      ---       LVL=0

      0100307BH   BLOCK     CODE     ---       LVL=0
      0100307BH   LINE      CODE     ---       #81
      0100307BH   LINE      CODE     ---       #82
      0100307BH   LINE      CODE     ---       #83
      01003082H   LINE      CODE     ---       #84
      01003082H   LINE      CODE     ---       #85
      01003085H   LINE      CODE     ---       #86
      01003088H   LINE      CODE     ---       #87
      01003088H   LINE      CODE     ---       #88
      0100308AH   LINE      CODE     ---       #89
      ---         BLOCKEND  ---      ---       LVL=0

      010030B8H   BLOCK     CODE     ---       LVL=0
      010030B8H   LINE      CODE     ---       #97
      010030B8H   LINE      CODE     ---       #98
      010030B8H   LINE      CODE     ---       #99
      010030BDH   LINE      CODE     ---       #100
      ---         BLOCKEND  ---      ---       LVL=0

      01002A26H   BLOCK     CODE     ---       LVL=0
      01002A26H   LINE      CODE     ---       #108
      01002A26H   LINE      CODE     ---       #109
      01002A26H   LINE      CODE     ---       #110
      01002A46H   LINE      CODE     ---       #111
      01002A46H   LINE      CODE     ---       #113
      01002A47H   LINE      CODE     ---       #114
      01002A53H   LINE      CODE     ---       #115
      01002A53H   LINE      CODE     ---       #116
      01002A55H   LINE      CODE     ---       #119
      01002A55H   LINE      CODE     ---       #120
      01002A60H   LINE      CODE     ---       #121
      01002A60H   LINE      CODE     ---       #124
      01002A65H   LINE      CODE     ---       #125
      01002A6DH   LINE      CODE     ---       #126
      01002A73H   LINE      CODE     ---       #127
      01002A73H   LINE      CODE     ---       #128
      01002A73H   LINE      CODE     ---       #130
      01002A7FH   LINE      CODE     ---       #131
      01002A85H   LINE      CODE     ---       #132
      ---         BLOCKEND  ---      ---       LVL=0
      00000006H   SYMBOL    DATA     WORD      duty

      010025FFH   BLOCK     CODE     ---       LVL=0
      0200021AH   SYMBOL    XDATA    ---       ramp
      010025FFH   LINE      CODE     ---       #167
      0100260AH   LINE      CODE     ---       #168
      0100260AH   LINE      CODE     ---       #169
      0100261CH   LINE      CODE     ---       #170
      0100261CH   LINE      CODE     ---       #171
      01002667H   LINE      CODE     ---       #172
      01002667H   LINE      CODE     ---       #173
      0100266CH   LINE      CODE     ---       #174
      0100266EH   LINE      CODE     ---       #175
      0100266EH   LINE      CODE     ---       #177
      01002673H   LINE      CODE     ---       #178
      01002673H   LINE      CODE     ---       #179
      01002687H   LINE      CODE     ---       #180
LX51 LINKER/LOCATER V4.66.30.0                                                        04/09/2024  13:54:58  PAGE 55


      ---         BLOCKEND  ---      ---       LVL=0

      ---         MODULE    ---      ---       MOTORTAILWIND
      020000D3H   PUBLIC    XDATA    ---       BEMFDetect
      020000CBH   PUBLIC    XDATA    ---       BEMF2SECTION
      020000C5H   PUBLIC    XDATA    ---       buf
      020000B9H   PUBLIC    XDATA    ---       Stk
      020000B8H   PUBLIC    XDATA    BYTE      brakefinishflag
      020000B6H   PUBLIC    XDATA    INT       FOC__THECOMP_Temp
      020000A0H   PUBLIC    XDATA    ---       TailWindDetect
      01001FC2H   PUBLIC    CODE     ---       TailWindSpeedDetect
      01001D78H   PUBLIC    CODE     ---       Drv_SectionCheak
      01001EAAH   PUBLIC    CODE     ---       BEMFFOCCloseLoopStart
      01002DD0H   PUBLIC    CODE     ---       BEMFDetectFunc
      01002B37H   PUBLIC    CODE     ---       BEMFSpeedCal
      010020C9H   PUBLIC    CODE     ---       BEMFSpeedDetect
      0100304EH   PUBLIC    CODE     ---       GetBEMFStatus
      01001061H   PUBLIC    CODE     ---       BEMFDealwith
      01002EA1H   PUBLIC    CODE     ---       Time2_BMEF_Init
      01002CC0H   PUBLIC    CODE     ---       CMP_BMEF_Init
      01002D92H   PUBLIC    CODE     ---       BEMFDetectInit
      01002F26H   PUBLIC    CODE     ---       tailWindVarible_Initial
      000000E8H.3 SFRSYM    DATA     BIT       GP43
      000000B0H.4 SFRSYM    DATA     BIT       GP34
      000000A0H.5 SFRSYM    DATA     BIT       GP25
      00000090H.6 SFRSYM    DATA     BIT       GP16
      00000080H.7 SFRSYM    DATA     BIT       GP07
      00000088H.1 SFRSYM    DATA     BIT       IT01
      00000088H.3 SFRSYM    DATA     BIT       IT10
      000000E8H.4 SFRSYM    DATA     BIT       GP44
      000000B0H.5 SFRSYM    DATA     BIT       GP35
      000000A0H.6 SFRSYM    DATA     BIT       GP26
      00000090H.7 SFRSYM    DATA     BIT       GP17
      00000080H   SFRSYM    DATA     BYTE      P0
      00000088H.4 SFRSYM    DATA     BIT       IT11
      000000C9H   SFRSYM    DATA     BYTE      RST_SR
      000000D9H   SFRSYM    DATA     BYTE      EVT_FILT
      000000E8H.5 SFRSYM    DATA     BIT       GP45
      000000B0H.6 SFRSYM    DATA     BIT       GP36
      000000A0H.7 SFRSYM    DATA     BIT       GP27
      00000090H   SFRSYM    DATA     BYTE      P1
      000000B0H.7 SFRSYM    DATA     BIT       GP37
      000000A0H   SFRSYM    DATA     BYTE      P2
      000000B0H   SFRSYM    DATA     BYTE      P3
      000000E8H   SFRSYM    DATA     BYTE      P4
      000000D0H.6 SFRSYM    DATA     BIT       AC
      000000A8H.7 SFRSYM    DATA     BIT       EA
      000000D5H   SFRSYM    DATA     BYTE      CMP_CR0
      000000D6H   SFRSYM    DATA     BYTE      CMP_CR1
      000000C6H   SFRSYM    DATA     WORD      MDU_A
      000000DAH   SFRSYM    DATA     BYTE      CMP_CR2
      000000C4H   SFRSYM    DATA     WORD      MDU_B
      000000B8H.2 SFRSYM    DATA     BIT       PX00
      000000DCH   SFRSYM    DATA     BYTE      CMP_CR3
      000000F8H   SFRSYM    DATA     BIT       OISUH
      000000C2H   SFRSYM    DATA     WORD      MDU_C
      000000B8H.3 SFRSYM    DATA     BIT       PX01
      000000B8H.4 SFRSYM    DATA     BIT       PX10
      000000E1H   SFRSYM    DATA     BYTE      CMP_CR4
      000000F8H.2 SFRSYM    DATA     BIT       OISVH
      000000CBH   SFRSYM    DATA     BYTE      MDU_D
      000000B8H.5 SFRSYM    DATA     BIT       PX11
      000000F8H.4 SFRSYM    DATA     BIT       OISWH
      000000F8H.1 SFRSYM    DATA     BIT       OISUL
      000000A8H   SFRSYM    DATA     BYTE      IE
LX51 LINKER/LOCATER V4.66.30.0                                                        04/09/2024  13:54:58  PAGE 56


      000000F8H.3 SFRSYM    DATA     BIT       OISVL
      000000F9H   SFRSYM    DATA     BYTE      PI_CR
      000000F8H.5 SFRSYM    DATA     BIT       OISWL
      000000D8H   SFRSYM    DATA     BIT       PCMP30
      000000AAH   SFRSYM    DATA     WORD      TIM2__CNTR
      000000D8H.1 SFRSYM    DATA     BIT       PCMP31
      000000A2H   SFRSYM    DATA     WORD      TIM3__CNTR
      00000092H   SFRSYM    DATA     WORD      TIM4__CNTR
      00000098H   SFRSYM    DATA     BIT       RI
      00000098H.6 SFRSYM    DATA     BIT       UT_MOD0
      00000098H.7 SFRSYM    DATA     BIT       UT_MOD1
      000000D0H.7 SFRSYM    DATA     BIT       CY
      00000098H.1 SFRSYM    DATA     BIT       TI
      000000C0H.2 SFRSYM    DATA     BIT       PTIM10
      00000084H   SFRSYM    DATA     BYTE      FLA_KEY
      000000C0H   SFRSYM    DATA     BIT       PTIM20
      000000C0H.3 SFRSYM    DATA     BIT       PTIM11
      00000098H   SFRSYM    DATA     BYTE      UT_CR
      000000C8H.2 SFRSYM    DATA     BIT       PTIM30
      000000C0H.1 SFRSYM    DATA     BIT       PTIM21
      00000099H   SFRSYM    DATA     BYTE      UT_DR
      000000C8H.3 SFRSYM    DATA     BIT       PTIM31
      000000C8H.6 SFRSYM    DATA     BIT       PTIM40
      000000C8H.7 SFRSYM    DATA     BIT       PTIM41
      000000D0H.2 SFRSYM    DATA     BIT       OV
      0000009AH   SFRSYM    DATA     WORD      UT_BAUD
      000000D8H.4 SFRSYM    DATA     BIT       PSPI_UT20
      000000D8H.5 SFRSYM    DATA     BIT       PSPI_UT21
      000000C8H.4 SFRSYM    DATA     BIT       PSYSTICK0
      000000C8H.5 SFRSYM    DATA     BIT       PSYSTICK1
      00000087H   SFRSYM    DATA     BYTE      PCON
      00000088H   SFRSYM    DATA     BYTE      TCON
      00000082H   SFRSYM    DATA     WORD      DPTR
      00000088H.2 SFRSYM    DATA     BIT       IF0
      000000AEH   SFRSYM    DATA     WORD      TIM2__ARR
      000000A1H   SFRSYM    DATA     BYTE      TIM2_CR0
      000000A6H   SFRSYM    DATA     WORD      TIM3__ARR
      0000009CH   SFRSYM    DATA     BYTE      TIM3_CR0
      000000A9H   SFRSYM    DATA     BYTE      TIM2_CR1
      00000096H   SFRSYM    DATA     WORD      TIM4__ARR
      0000009EH   SFRSYM    DATA     BYTE      TIM4_CR0
      0000009DH   SFRSYM    DATA     BYTE      TIM3_CR1
      000000F8H   SFRSYM    DATA     BYTE      DRV_OUT
      0000009FH   SFRSYM    DATA     BYTE      TIM4_CR1
      000000E0H   SFRSYM    DATA     BYTE      ACC
      000000DBH   SFRSYM    DATA     BYTE      LVSR
      000000A8H.4 SFRSYM    DATA     BIT       ES0
      00000085H   SFRSYM    DATA     BYTE      FLA_CR
      000000C0H.4 SFRSYM    DATA     BIT       PADC0
      000000B8H   SFRSYM    DATA     BYTE      IP0
      000000C0H.5 SFRSYM    DATA     BIT       PADC1
      000000C0H   SFRSYM    DATA     BYTE      IP1
      000000C8H   SFRSYM    DATA     BYTE      IP2
      00000098H.2 SFRSYM    DATA     BIT       RB8
      000000D8H   SFRSYM    DATA     BYTE      IP3
      000000A8H   SFRSYM    DATA     BIT       EX0
      00000098H.3 SFRSYM    DATA     BIT       TB8
      000000A8H.2 SFRSYM    DATA     BIT       EX1
      000000D0H   SFRSYM    DATA     BIT       P
      0000008AH   SFRSYM    DATA     BYTE      UT2_CR
      00000089H   SFRSYM    DATA     BYTE      UT2_DR
      00000098H.5 SFRSYM    DATA     BIT       SM2
      000000D8H.6 SFRSYM    DATA     BIT       PDMA0
      000000D8H.7 SFRSYM    DATA     BIT       PDMA1
      000000D0H.3 SFRSYM    DATA     BIT       RS0
LX51 LINKER/LOCATER V4.66.30.0                                                        04/09/2024  13:54:58  PAGE 57


      000000D0H.4 SFRSYM    DATA     BIT       RS1
      000000CAH   SFRSYM    DATA     BYTE      MDU_MD
      000000C1H   SFRSYM    DATA     BYTE      MDU_CR
      000000F8H.7 SFRSYM    DATA     BIT       MOE
      000000C0H.6 SFRSYM    DATA     BIT       PCMP0
      000000C0H.7 SFRSYM    DATA     BIT       PCMP1
      00000098H.4 SFRSYM    DATA     BIT       REN
      000000D7H   SFRSYM    DATA     BYTE      CMP_SR
      000000C8H   SFRSYM    DATA     BIT       PRTC0
      000000C8H.1 SFRSYM    DATA     BIT       PRTC1
      000000B8H.6 SFRSYM    DATA     BIT       PDRV0
      000000B8H.7 SFRSYM    DATA     BIT       PDRV1
      000000D1H   SFRSYM    DATA     BYTE      P1_IE
      000000D3H   SFRSYM    DATA     BYTE      P2_IE
      000000D2H   SFRSYM    DATA     BYTE      P1_IF
      000000D4H   SFRSYM    DATA     BYTE      P2_IF
      000000ACH   SFRSYM    DATA     WORD      TIM2__DR
      000000FCH   SFRSYM    DATA     BYTE      P0_OE
      000000A4H   SFRSYM    DATA     WORD      TIM3__DR
      000000FDH   SFRSYM    DATA     BYTE      P1_OE
      00000094H   SFRSYM    DATA     WORD      TIM4__DR
      000000D0H.5 SFRSYM    DATA     BIT       F0
      000000FEH   SFRSYM    DATA     BYTE      P2_OE
      000000D0H.1 SFRSYM    DATA     BIT       F1
      000000FFH   SFRSYM    DATA     BYTE      P3_OE
      00000080H   SFRSYM    DATA     BIT       GP00
      000000E9H   SFRSYM    DATA     BYTE      P4_OE
      00000090H   SFRSYM    DATA     BIT       GP10
      00000080H.1 SFRSYM    DATA     BIT       GP01
      000000A8H.6 SFRSYM    DATA     BIT       RTCIE
      000000A0H   SFRSYM    DATA     BIT       GP20
      00000090H.1 SFRSYM    DATA     BIT       GP11
      00000080H.2 SFRSYM    DATA     BIT       GP02
      000000B0H   SFRSYM    DATA     BIT       GP30
      000000A0H.1 SFRSYM    DATA     BIT       GP21
      00000090H.2 SFRSYM    DATA     BIT       GP12
      00000080H.3 SFRSYM    DATA     BIT       GP03
      000000D8H.2 SFRSYM    DATA     BIT       PI2C_UT10
      000000B8H   SFRSYM    DATA     BIT       PLVW0
      000000A8H.1 SFRSYM    DATA     BIT       TSDIE
      000000D0H   SFRSYM    DATA     BYTE      PSW
      000000B0H.1 SFRSYM    DATA     BIT       GP31
      000000A0H.2 SFRSYM    DATA     BIT       GP22
      00000090H.3 SFRSYM    DATA     BIT       GP13
      00000080H.4 SFRSYM    DATA     BIT       GP04
      000000D8H.3 SFRSYM    DATA     BIT       PI2C_UT11
      000000B8H.1 SFRSYM    DATA     BIT       PLVW1
      000000A8H.3 SFRSYM    DATA     BIT       SPIIE
      00000088H.5 SFRSYM    DATA     BIT       TSDIF
      000000B0H.2 SFRSYM    DATA     BIT       GP32
      000000A0H.3 SFRSYM    DATA     BIT       GP23
      00000090H.4 SFRSYM    DATA     BIT       GP14
      00000080H.5 SFRSYM    DATA     BIT       GP05
      000000E8H.2 SFRSYM    DATA     BIT       GP42
      000000B0H.3 SFRSYM    DATA     BIT       GP33
      000000A0H.4 SFRSYM    DATA     BIT       GP24
      00000090H.5 SFRSYM    DATA     BIT       GP15
      00000080H.6 SFRSYM    DATA     BIT       GP06
      00000088H   SFRSYM    DATA     BIT       IT00

      01002F26H   BLOCK     CODE     ---       LVL=0
      01002F26H   LINE      CODE     ---       #78
      01002F26H   LINE      CODE     ---       #79
      01002F26H   LINE      CODE     ---       #80
      01002F35H   LINE      CODE     ---       #81
LX51 LINKER/LOCATER V4.66.30.0                                                        04/09/2024  13:54:58  PAGE 58


      01002F44H   LINE      CODE     ---       #82
      01002F4AH   LINE      CODE     ---       #83
      01002F4EH   LINE      CODE     ---       #84
      ---         BLOCKEND  ---      ---       LVL=0

      01002D92H   BLOCK     CODE     ---       LVL=0
      01002D92H   LINE      CODE     ---       #87
      01002D92H   LINE      CODE     ---       #88
      01002D92H   LINE      CODE     ---       #89
      01002D94H   LINE      CODE     ---       #90
      01002D9BH   LINE      CODE     ---       #91
      01002DA3H   LINE      CODE     ---       #92
      01002DA8H   LINE      CODE     ---       #93
      01002DACH   LINE      CODE     ---       #94
      01002DB5H   LINE      CODE     ---       #96
      01002DBAH   LINE      CODE     ---       #97
      01002DBCH   LINE      CODE     ---       #98
      01002DBEH   LINE      CODE     ---       #100
      01002DC2H   LINE      CODE     ---       #101
      01002DC6H   LINE      CODE     ---       #102
      01002DCAH   LINE      CODE     ---       #104
      01002DCDH   LINE      CODE     ---       #106
      ---         BLOCKEND  ---      ---       LVL=0

      01002CC0H   BLOCK     CODE     ---       LVL=0
      01002CC0H   LINE      CODE     ---       #116
      01002CC0H   LINE      CODE     ---       #117
      01002CC0H   LINE      CODE     ---       #126
      01002CC7H   LINE      CODE     ---       #127
      01002CCCH   LINE      CODE     ---       #128
      01002CD3H   LINE      CODE     ---       #136
      01002CDBH   LINE      CODE     ---       #145
      01002CDEH   LINE      CODE     ---       #152
      01002CE6H   LINE      CODE     ---       #156
      01002CE9H   LINE      CODE     ---       #162
      01002CF1H   LINE      CODE     ---       #163
      01002CF9H   LINE      CODE     ---       #164
      01002D01H   LINE      CODE     ---       #166
      01002D04H   LINE      CODE     ---       #168
      01002D07H   LINE      CODE     ---       #169
      ---         BLOCKEND  ---      ---       LVL=0

      01002EA1H   BLOCK     CODE     ---       LVL=0
      01002EA1H   LINE      CODE     ---       #173
      01002EA1H   LINE      CODE     ---       #174
      01002EA1H   LINE      CODE     ---       #178
      01002EA4H   LINE      CODE     ---       #185
      01002EACH   LINE      CODE     ---       #192
      01002EB4H   LINE      CODE     ---       #197
      01002EB7H   LINE      CODE     ---       #198
      01002EBAH   LINE      CODE     ---       #205
      01002EC0H   LINE      CODE     ---       #206
      01002EC6H   LINE      CODE     ---       #207
      01002ECBH   LINE      CODE     ---       #209
      01002ECEH   LINE      CODE     ---       #210
      ---         BLOCKEND  ---      ---       LVL=0

      01001061H   BLOCK     CODE     ---       LVL=0
      01001061H   LINE      CODE     ---       #213
      01001061H   LINE      CODE     ---       #214
      01001061H   LINE      CODE     ---       #215
      0100107DH   LINE      CODE     ---       #216
      0100107DH   LINE      CODE     ---       #217
      01001085H   LINE      CODE     ---       #219
      01001091H   LINE      CODE     ---       #220
LX51 LINKER/LOCATER V4.66.30.0                                                        04/09/2024  13:54:58  PAGE 59


      01001091H   LINE      CODE     ---       #221
      01001096H   LINE      CODE     ---       #222
      010010ADH   LINE      CODE     ---       #223
      010010ADH   LINE      CODE     ---       #225
      010010ADH   LINE      CODE     ---       #226
      010010B3H   LINE      CODE     ---       #227
      010010B3H   LINE      CODE     ---       #228
      010010C8H   LINE      CODE     ---       #229
      010010C8H   LINE      CODE     ---       #230
      010010CAH   LINE      CODE     ---       #232
      010010D0H   LINE      CODE     ---       #233
      010010D0H   LINE      CODE     ---       #240
      010010D6H   LINE      CODE     ---       #241
      010010D8H   LINE      CODE     ---       #242
      010010E7H   LINE      CODE     ---       #243
      010010E7H   LINE      CODE     ---       #244
      010010F0H   LINE      CODE     ---       #245
      010010F2H   LINE      CODE     ---       #247
      010010F2H   LINE      CODE     ---       #248
      010010F8H   LINE      CODE     ---       #249
      01001101H   LINE      CODE     ---       #252
      01001101H   LINE      CODE     ---       #253
      01001101H   LINE      CODE     ---       #254
      01001120H   LINE      CODE     ---       #255
      01001120H   LINE      CODE     ---       #329
      01001120H   LINE      CODE     ---       #330
      01001126H   LINE      CODE     ---       #331
      0100112DH   LINE      CODE     ---       #333
      0100112FH   LINE      CODE     ---       #334
      01001142H   LINE      CODE     ---       #335
      01001149H   LINE      CODE     ---       #336
      0100115FH   LINE      CODE     ---       #338
      01001166H   LINE      CODE     ---       #339
      01001168H   LINE      CODE     ---       #341
      0100116BH   LINE      CODE     ---       #342
      0100116EH   LINE      CODE     ---       #344
      01001174H   LINE      CODE     ---       #346
      01001183H   LINE      CODE     ---       #347
      01001183H   LINE      CODE     ---       #348
      0100118DH   LINE      CODE     ---       #349
      01001193H   LINE      CODE     ---       #350
      01001195H   LINE      CODE     ---       #352
      01001195H   LINE      CODE     ---       #353
      0100119FH   LINE      CODE     ---       #354
      010011A5H   LINE      CODE     ---       #355
      010011A8H   LINE      CODE     ---       #356
      010011A8H   LINE      CODE     ---       #357
      010011A8H   LINE      CODE     ---       #359
      010011A8H   LINE      CODE     ---       #360
      010011BBH   LINE      CODE     ---       #361
      010011BBH   LINE      CODE     ---       #362
      010011BEH   LINE      CODE     ---       #363
      010011C1H   LINE      CODE     ---       #364
      010011C7H   LINE      CODE     ---       #365
      010011D1H   LINE      CODE     ---       #366
      010011D1H   LINE      CODE     ---       #367
      010011D1H   LINE      CODE     ---       #368
      010011E8H   LINE      CODE     ---       #369
      010011E8H   LINE      CODE     ---       #370
      010011EDH   LINE      CODE     ---       #371
      010011F1H   LINE      CODE     ---       #372
      010011F7H   LINE      CODE     ---       #373
      010011FDH   LINE      CODE     ---       #374
      010011FDH   LINE      CODE     ---       #375
      0100120CH   LINE      CODE     ---       #376
LX51 LINKER/LOCATER V4.66.30.0                                                        04/09/2024  13:54:58  PAGE 60


      0100120CH   LINE      CODE     ---       #377
      01001210H   LINE      CODE     ---       #378
      01001214H   LINE      CODE     ---       #379
      01001218H   LINE      CODE     ---       #380
      0100121EH   LINE      CODE     ---       #381
      01001224H   LINE      CODE     ---       #382
      01001224H   LINE      CODE     ---       #384
      ---         BLOCKEND  ---      ---       LVL=0

      0100304EH   BLOCK     CODE     ---       LVL=0
      0100304EH   BLOCK     CODE     NEAR LAB  LVL=1
      00000007H   SYMBOL    DATA     BYTE      BEMFStatus
      ---         BLOCKEND  ---      ---       LVL=1
      0100304EH   LINE      CODE     ---       #387
      0100304EH   LINE      CODE     ---       #388
      0100304EH   LINE      CODE     ---       #389
      01003050H   LINE      CODE     ---       #390
      01003055H   LINE      CODE     ---       #391
      01003059H   LINE      CODE     ---       #392
      0100305EH   LINE      CODE     ---       #393
      01003060H   LINE      CODE     ---       #394
      01003065H   LINE      CODE     ---       #395
      01003066H   LINE      CODE     ---       #396
      01003066H   LINE      CODE     ---       #397
      ---         BLOCKEND  ---      ---       LVL=0

      010020C9H   BLOCK     CODE     ---       LVL=0
      010020C9H   LINE      CODE     ---       #405
      010020C9H   LINE      CODE     ---       #406
      010020C9H   LINE      CODE     ---       #407
      010020CFH   LINE      CODE     ---       #408
      010020CFH   LINE      CODE     ---       #409
      010020D1H   LINE      CODE     ---       #411
      010020D8H   LINE      CODE     ---       #412
      010020DCH   LINE      CODE     ---       #413
      010020E0H   LINE      CODE     ---       #414
      010020E4H   LINE      CODE     ---       #415
      010020E8H   LINE      CODE     ---       #416
      010020ECH   LINE      CODE     ---       #417
      010020F0H   LINE      CODE     ---       #418
      010020F4H   LINE      CODE     ---       #419
      010020FAH   LINE      CODE     ---       #420
      010020FEH   LINE      CODE     ---       #421
      010020FFH   LINE      CODE     ---       #423
      010020FFH   LINE      CODE     ---       #424
      01002109H   LINE      CODE     ---       #425
      0100210EH   LINE      CODE     ---       #427
      0100212AH   LINE      CODE     ---       #429
      01002181H   LINE      CODE     ---       #432
      01002187H   LINE      CODE     ---       #434
      01002190H   LINE      CODE     ---       #435
      01002190H   LINE      CODE     ---       #436
      01002193H   LINE      CODE     ---       #437
      0100219DH   LINE      CODE     ---       #438
      0100219FH   LINE      CODE     ---       #440
      0100219FH   LINE      CODE     ---       #441
      010021A2H   LINE      CODE     ---       #442
      010021ACH   LINE      CODE     ---       #443
      010021BBH   LINE      CODE     ---       #444
      010021BBH   LINE      CODE     ---       #446
      010021C2H   LINE      CODE     ---       #447
      010021C2H   LINE      CODE     ---       #448
      010021C8H   LINE      CODE     ---       #449
      010021CBH   LINE      CODE     ---       #450
      010021CBH   LINE      CODE     ---       #451
LX51 LINKER/LOCATER V4.66.30.0                                                        04/09/2024  13:54:58  PAGE 61


      010021CBH   LINE      CODE     ---       #452
      ---         BLOCKEND  ---      ---       LVL=0

      01002B37H   BLOCK     CODE     ---       LVL=0
      01002B37H   LINE      CODE     ---       #460
      01002B37H   LINE      CODE     ---       #461
      01002B37H   LINE      CODE     ---       #462
      01002B3DH   LINE      CODE     ---       #463
      01002B3DH   LINE      CODE     ---       #464
      01002B86H   LINE      CODE     ---       #465
      01002B8BH   LINE      CODE     ---       #466
      01002B8BH   LINE      CODE     ---       #467
      ---         BLOCKEND  ---      ---       LVL=0

      01002DD0H   BLOCK     CODE     ---       LVL=0
      01002DD0H   LINE      CODE     ---       #475
      01002DD0H   LINE      CODE     ---       #476
      01002DD0H   LINE      CODE     ---       #478
      01002DD8H   LINE      CODE     ---       #480
      01002DDBH   LINE      CODE     ---       #482
      01002DDEH   LINE      CODE     ---       #485
      01002DE4H   LINE      CODE     ---       #486
      01002DE4H   LINE      CODE     ---       #488
      01002DFEH   LINE      CODE     ---       #490
      01002DFEH   LINE      CODE     ---       #492
      01002E01H   LINE      CODE     ---       #493
      01002E04H   LINE      CODE     ---       #494
      01002E07H   LINE      CODE     ---       #496
      01002E0CH   LINE      CODE     ---       #497
      01002E0CH   LINE      CODE     ---       #498
      01002E0CH   LINE      CODE     ---       #499
      ---         BLOCKEND  ---      ---       LVL=0

      01001EAAH   BLOCK     CODE     ---       LVL=0
      01001EAAH   LINE      CODE     ---       #517
      01001EAAH   LINE      CODE     ---       #518
      01001EAAH   LINE      CODE     ---       #526
      01001EADH   LINE      CODE     ---       #528
      01001EB3H   LINE      CODE     ---       #531
      01001EBAH   LINE      CODE     ---       #533
      01001EC4H   LINE      CODE     ---       #534
      01001ECBH   LINE      CODE     ---       #536
      01001ED4H   LINE      CODE     ---       #537
      01001EDBH   LINE      CODE     ---       #538
      01001EE3H   LINE      CODE     ---       #540
      01001EEAH   LINE      CODE     ---       #541
      01001EEEH   LINE      CODE     ---       #542
      01001EF2H   LINE      CODE     ---       #544
      01001F02H   LINE      CODE     ---       #545
      01001F0AH   LINE      CODE     ---       #546
      01001F0AH   LINE      CODE     ---       #547
      01001F14H   LINE      CODE     ---       #548
      01001F1BH   LINE      CODE     ---       #549
      01001F24H   LINE      CODE     ---       #550
      01001F24H   LINE      CODE     ---       #551
      01001F26H   LINE      CODE     ---       #552
      01001F37H   LINE      CODE     ---       #553
      01001F37H   LINE      CODE     ---       #554
      01001F41H   LINE      CODE     ---       #555
      01001F48H   LINE      CODE     ---       #556
      01001F51H   LINE      CODE     ---       #557
      01001F51H   LINE      CODE     ---       #558
      01001F53H   LINE      CODE     ---       #560
      01001F53H   LINE      CODE     ---       #561
      01001F5DH   LINE      CODE     ---       #562
LX51 LINKER/LOCATER V4.66.30.0                                                        04/09/2024  13:54:58  PAGE 62


      01001F64H   LINE      CODE     ---       #563
      01001F6EH   LINE      CODE     ---       #564
      01001F78H   LINE      CODE     ---       #565
      01001F78H   LINE      CODE     ---       #566
      01001F81H   LINE      CODE     ---       #567
      01001F89H   LINE      CODE     ---       #568
      01001F92H   LINE      CODE     ---       #569
      01001F9CH   LINE      CODE     ---       #570
      01001FA2H   LINE      CODE     ---       #571
      01001FA9H   LINE      CODE     ---       #573
      01001FBFH   LINE      CODE     ---       #574
      01001FC1H   LINE      CODE     ---       #575
      ---         BLOCKEND  ---      ---       LVL=0

      01001D78H   BLOCK     CODE     ---       LVL=0
      01001D78H   BLOCK     CODE     NEAR LAB  LVL=1
      0200009DH   SYMBOL    XDATA    BYTE      i
      00000007H   SYMBOL    DATA     CHAR      Value
      ---         BLOCKEND  ---      ---       LVL=1
      01001D78H   LINE      CODE     ---       #583
      01001D78H   LINE      CODE     ---       #584
      01001D78H   LINE      CODE     ---       #588
      01001D80H   LINE      CODE     ---       #589
      01001D84H   LINE      CODE     ---       #591
      01001D97H   LINE      CODE     ---       #592
      01001DA0H   LINE      CODE     ---       #593
      01001DA0H   LINE      CODE     ---       #594
      01001DA2H   LINE      CODE     ---       #595
      01001DA2H   LINE      CODE     ---       #597
      01001DBBH   LINE      CODE     ---       #598
      01001DBBH   LINE      CODE     ---       #599
      01001DD0H   LINE      CODE     ---       #601
      01001DD7H   LINE      CODE     ---       #602
      01001DDEH   LINE      CODE     ---       #603
      01001DDEH   LINE      CODE     ---       #604
      01001DE2H   LINE      CODE     ---       #605
      01001DE4H   LINE      CODE     ---       #606
      01001DECH   LINE      CODE     ---       #607
      01001DECH   LINE      CODE     ---       #608
      01001DF0H   LINE      CODE     ---       #609
      01001DF0H   LINE      CODE     ---       #611
      01001DF6H   LINE      CODE     ---       #614
      01001DFAH   LINE      CODE     ---       #615
      01001DFAH   LINE      CODE     ---       #616
      01001DFFH   LINE      CODE     ---       #617
      01001DFFH   LINE      CODE     ---       #619
      01001E01H   LINE      CODE     ---       #620
      01001E05H   LINE      CODE     ---       #621
      01001E05H   LINE      CODE     ---       #622
      01001E0BH   LINE      CODE     ---       #623
      01001E0EH   LINE      CODE     ---       #624
      01001E10H   LINE      CODE     ---       #626
      01001E10H   LINE      CODE     ---       #627
      01001E16H   LINE      CODE     ---       #628
      01001E16H   LINE      CODE     ---       #630
      01001E30H   LINE      CODE     ---       #631
      01001E30H   LINE      CODE     ---       #632
      01001E32H   LINE      CODE     ---       #633
      01001E45H   LINE      CODE     ---       #634
      01001E45H   LINE      CODE     ---       #635
      01001E4AH   LINE      CODE     ---       #636
      01001E4AH   LINE      CODE     ---       #638
      01001E64H   LINE      CODE     ---       #639
      01001E64H   LINE      CODE     ---       #640
      01001E69H   LINE      CODE     ---       #641
LX51 LINKER/LOCATER V4.66.30.0                                                        04/09/2024  13:54:58  PAGE 63


      01001E6FH   LINE      CODE     ---       #642
      01001E77H   LINE      CODE     ---       #643
      01001E77H   LINE      CODE     ---       #644
      01001E7BH   LINE      CODE     ---       #645
      01001E7BH   LINE      CODE     ---       #646
      01001E8DH   LINE      CODE     ---       #647
      01001E8DH   LINE      CODE     ---       #648
      01001E90H   LINE      CODE     ---       #649
      01001E92H   LINE      CODE     ---       #650
      01001E92H   LINE      CODE     ---       #651
      01001E95H   LINE      CODE     ---       #652
      01001E95H   LINE      CODE     ---       #654
      01001EA0H   LINE      CODE     ---       #655
      01001EA0H   LINE      CODE     ---       #656
      01001EA4H   LINE      CODE     ---       #657
      01001EA4H   LINE      CODE     ---       #658
      01001EA4H   LINE      CODE     ---       #659
      01001EA9H   LINE      CODE     ---       #660
      ---         BLOCKEND  ---      ---       LVL=0

      01001FC2H   BLOCK     CODE     ---       LVL=0
      01001FC2H   BLOCK     CODE     NEAR LAB  LVL=1
      0200009EH   SYMBOL    XDATA    INT       LatestTheta
      ---         BLOCKEND  ---      ---       LVL=1
      01001FC2H   LINE      CODE     ---       #683
      01001FC2H   LINE      CODE     ---       #684
      01001FC2H   LINE      CODE     ---       #686
      01001FCDH   LINE      CODE     ---       #687
      01001FCDH   LINE      CODE     ---       #689
      01001FD6H   LINE      CODE     ---       #690
      01001FD6H   LINE      CODE     ---       #691
      01001FE5H   LINE      CODE     ---       #694
      01001FF7H   LINE      CODE     ---       #695
      01001FF7H   LINE      CODE     ---       #697
      01002004H   LINE      CODE     ---       #698
      01002004H   LINE      CODE     ---       #699
      0100200BH   LINE      CODE     ---       #700
      0100200EH   LINE      CODE     ---       #701
      0100201BH   LINE      CODE     ---       #702
      0100201BH   LINE      CODE     ---       #704
      01002021H   LINE      CODE     ---       #705
      01002022H   LINE      CODE     ---       #706
      0100203DH   LINE      CODE     ---       #707
      0100203DH   LINE      CODE     ---       #709
      0100204BH   LINE      CODE     ---       #710
      0100204BH   LINE      CODE     ---       #712
      01002059H   LINE      CODE     ---       #713
      0100205FH   LINE      CODE     ---       #716
      01002068H   LINE      CODE     ---       #719
      01002077H   LINE      CODE     ---       #720
      01002081H   LINE      CODE     ---       #721
      01002086H   LINE      CODE     ---       #722
      01002086H   LINE      CODE     ---       #723
      0100208CH   LINE      CODE     ---       #725
      0100208DH   LINE      CODE     ---       #727
      0100209EH   LINE      CODE     ---       #728
      0100209EH   LINE      CODE     ---       #730
      010020ABH   LINE      CODE     ---       #731
      010020ABH   LINE      CODE     ---       #732
      010020B2H   LINE      CODE     ---       #733
      010020B5H   LINE      CODE     ---       #734
      010020C2H   LINE      CODE     ---       #735
      010020C2H   LINE      CODE     ---       #736
      010020C8H   LINE      CODE     ---       #737
      010020C8H   LINE      CODE     ---       #738
LX51 LINKER/LOCATER V4.66.30.0                                                        04/09/2024  13:54:58  PAGE 64


      010020C8H   LINE      CODE     ---       #739
      010020C8H   LINE      CODE     ---       #740
      ---         BLOCKEND  ---      ---       LVL=0

      ---         MODULE    ---      ---       MOTORPROTECT
      00000038H   PUBLIC    IDATA    ---       mcFaultDect
      00000036H   PUBLIC    IDATA    ---       mcProtectTime
      0200020DH   PUBLIC    XDATA    ---       mcFaultSource
      0200020BH   PUBLIC    XDATA    WORD      Stall_Diff_RecoverTime
      02000209H   PUBLIC    XDATA    WORD      Stall_CCW_State_Count
      01002FBEH   PUBLIC    CODE     ---       FaultProcess
      010021CCH   PUBLIC    CODE     ---       _Fault_softOverCurrent
      0100182AH   PUBLIC    CODE     ---       Fault_phaseLoss
      01002797H   PUBLIC    CODE     ---       Fault_OverUnderVoltage
      01001225H   PUBLIC    CODE     ---       Fault_Stall
      010016C2H   PUBLIC    CODE     ---       Fault_Detection
      01002FDFH   PUBLIC    CODE     ---       faultVarible_Initial
      000000E8H.3 SFRSYM    DATA     BIT       GP43
      000000B0H.4 SFRSYM    DATA     BIT       GP34
      000000A0H.5 SFRSYM    DATA     BIT       GP25
      00000090H.6 SFRSYM    DATA     BIT       GP16
      00000080H.7 SFRSYM    DATA     BIT       GP07
      00000088H.1 SFRSYM    DATA     BIT       IT01
      00000088H.3 SFRSYM    DATA     BIT       IT10
      000000E8H.4 SFRSYM    DATA     BIT       GP44
      000000B0H.5 SFRSYM    DATA     BIT       GP35
      000000A0H.6 SFRSYM    DATA     BIT       GP26
      00000090H.7 SFRSYM    DATA     BIT       GP17
      00000080H   SFRSYM    DATA     BYTE      P0
      00000088H.4 SFRSYM    DATA     BIT       IT11
      000000C9H   SFRSYM    DATA     BYTE      RST_SR
      000000D9H   SFRSYM    DATA     BYTE      EVT_FILT
      000000E8H.5 SFRSYM    DATA     BIT       GP45
      000000B0H.6 SFRSYM    DATA     BIT       GP36
      000000A0H.7 SFRSYM    DATA     BIT       GP27
      00000090H   SFRSYM    DATA     BYTE      P1
      000000B0H.7 SFRSYM    DATA     BIT       GP37
      000000A0H   SFRSYM    DATA     BYTE      P2
      000000B0H   SFRSYM    DATA     BYTE      P3
      000000E8H   SFRSYM    DATA     BYTE      P4
      000000D0H.6 SFRSYM    DATA     BIT       AC
      000000A8H.7 SFRSYM    DATA     BIT       EA
      000000D5H   SFRSYM    DATA     BYTE      CMP_CR0
      000000D6H   SFRSYM    DATA     BYTE      CMP_CR1
      000000C6H   SFRSYM    DATA     WORD      MDU_A
      000000DAH   SFRSYM    DATA     BYTE      CMP_CR2
      000000C4H   SFRSYM    DATA     WORD      MDU_B
      000000B8H.2 SFRSYM    DATA     BIT       PX00
      000000DCH   SFRSYM    DATA     BYTE      CMP_CR3
      000000F8H   SFRSYM    DATA     BIT       OISUH
      000000C2H   SFRSYM    DATA     WORD      MDU_C
      000000B8H.3 SFRSYM    DATA     BIT       PX01
      000000B8H.4 SFRSYM    DATA     BIT       PX10
      000000E1H   SFRSYM    DATA     BYTE      CMP_CR4
      000000F8H.2 SFRSYM    DATA     BIT       OISVH
      000000CBH   SFRSYM    DATA     BYTE      MDU_D
      000000B8H.5 SFRSYM    DATA     BIT       PX11
      000000F8H.4 SFRSYM    DATA     BIT       OISWH
      000000F8H.1 SFRSYM    DATA     BIT       OISUL
      000000A8H   SFRSYM    DATA     BYTE      IE
      000000F8H.3 SFRSYM    DATA     BIT       OISVL
      000000F9H   SFRSYM    DATA     BYTE      PI_CR
      000000F8H.5 SFRSYM    DATA     BIT       OISWL
      000000D8H   SFRSYM    DATA     BIT       PCMP30
      000000AAH   SFRSYM    DATA     WORD      TIM2__CNTR
LX51 LINKER/LOCATER V4.66.30.0                                                        04/09/2024  13:54:58  PAGE 65


      000000D8H.1 SFRSYM    DATA     BIT       PCMP31
      000000A2H   SFRSYM    DATA     WORD      TIM3__CNTR
      00000092H   SFRSYM    DATA     WORD      TIM4__CNTR
      00000098H   SFRSYM    DATA     BIT       RI
      00000098H.6 SFRSYM    DATA     BIT       UT_MOD0
      00000098H.7 SFRSYM    DATA     BIT       UT_MOD1
      000000D0H.7 SFRSYM    DATA     BIT       CY
      00000098H.1 SFRSYM    DATA     BIT       TI
      000000C0H.2 SFRSYM    DATA     BIT       PTIM10
      00000084H   SFRSYM    DATA     BYTE      FLA_KEY
      000000C0H   SFRSYM    DATA     BIT       PTIM20
      000000C0H.3 SFRSYM    DATA     BIT       PTIM11
      00000098H   SFRSYM    DATA     BYTE      UT_CR
      000000C8H.2 SFRSYM    DATA     BIT       PTIM30
      000000C0H.1 SFRSYM    DATA     BIT       PTIM21
      00000099H   SFRSYM    DATA     BYTE      UT_DR
      000000C8H.3 SFRSYM    DATA     BIT       PTIM31
      000000C8H.6 SFRSYM    DATA     BIT       PTIM40
      000000C8H.7 SFRSYM    DATA     BIT       PTIM41
      000000D0H.2 SFRSYM    DATA     BIT       OV
      0000009AH   SFRSYM    DATA     WORD      UT_BAUD
      000000D8H.4 SFRSYM    DATA     BIT       PSPI_UT20
      000000D8H.5 SFRSYM    DATA     BIT       PSPI_UT21
      000000C8H.4 SFRSYM    DATA     BIT       PSYSTICK0
      000000C8H.5 SFRSYM    DATA     BIT       PSYSTICK1
      00000087H   SFRSYM    DATA     BYTE      PCON
      00000088H   SFRSYM    DATA     BYTE      TCON
      00000082H   SFRSYM    DATA     WORD      DPTR
      00000088H.2 SFRSYM    DATA     BIT       IF0
      000000AEH   SFRSYM    DATA     WORD      TIM2__ARR
      000000A1H   SFRSYM    DATA     BYTE      TIM2_CR0
      000000A6H   SFRSYM    DATA     WORD      TIM3__ARR
      0000009CH   SFRSYM    DATA     BYTE      TIM3_CR0
      000000A9H   SFRSYM    DATA     BYTE      TIM2_CR1
      00000096H   SFRSYM    DATA     WORD      TIM4__ARR
      0000009EH   SFRSYM    DATA     BYTE      TIM4_CR0
      0000009DH   SFRSYM    DATA     BYTE      TIM3_CR1
      000000F8H   SFRSYM    DATA     BYTE      DRV_OUT
      0000009FH   SFRSYM    DATA     BYTE      TIM4_CR1
      000000E0H   SFRSYM    DATA     BYTE      ACC
      000000DBH   SFRSYM    DATA     BYTE      LVSR
      000000A8H.4 SFRSYM    DATA     BIT       ES0
      00000085H   SFRSYM    DATA     BYTE      FLA_CR
      000000C0H.4 SFRSYM    DATA     BIT       PADC0
      000000B8H   SFRSYM    DATA     BYTE      IP0
      000000C0H.5 SFRSYM    DATA     BIT       PADC1
      000000C0H   SFRSYM    DATA     BYTE      IP1
      000000C8H   SFRSYM    DATA     BYTE      IP2
      00000098H.2 SFRSYM    DATA     BIT       RB8
      000000D8H   SFRSYM    DATA     BYTE      IP3
      000000A8H   SFRSYM    DATA     BIT       EX0
      00000098H.3 SFRSYM    DATA     BIT       TB8
      000000A8H.2 SFRSYM    DATA     BIT       EX1
      000000D0H   SFRSYM    DATA     BIT       P
      0000008AH   SFRSYM    DATA     BYTE      UT2_CR
      00000089H   SFRSYM    DATA     BYTE      UT2_DR
      00000098H.5 SFRSYM    DATA     BIT       SM2
      000000D8H.6 SFRSYM    DATA     BIT       PDMA0
      000000D8H.7 SFRSYM    DATA     BIT       PDMA1
      000000D0H.3 SFRSYM    DATA     BIT       RS0
      000000D0H.4 SFRSYM    DATA     BIT       RS1
      000000CAH   SFRSYM    DATA     BYTE      MDU_MD
      000000C1H   SFRSYM    DATA     BYTE      MDU_CR
      000000F8H.7 SFRSYM    DATA     BIT       MOE
      000000C0H.6 SFRSYM    DATA     BIT       PCMP0
LX51 LINKER/LOCATER V4.66.30.0                                                        04/09/2024  13:54:58  PAGE 66


      000000C0H.7 SFRSYM    DATA     BIT       PCMP1
      00000098H.4 SFRSYM    DATA     BIT       REN
      000000D7H   SFRSYM    DATA     BYTE      CMP_SR
      000000C8H   SFRSYM    DATA     BIT       PRTC0
      000000C8H.1 SFRSYM    DATA     BIT       PRTC1
      000000B8H.6 SFRSYM    DATA     BIT       PDRV0
      000000B8H.7 SFRSYM    DATA     BIT       PDRV1
      000000D1H   SFRSYM    DATA     BYTE      P1_IE
      000000D3H   SFRSYM    DATA     BYTE      P2_IE
      000000D2H   SFRSYM    DATA     BYTE      P1_IF
      000000D4H   SFRSYM    DATA     BYTE      P2_IF
      000000ACH   SFRSYM    DATA     WORD      TIM2__DR
      000000FCH   SFRSYM    DATA     BYTE      P0_OE
      000000A4H   SFRSYM    DATA     WORD      TIM3__DR
      000000FDH   SFRSYM    DATA     BYTE      P1_OE
      00000094H   SFRSYM    DATA     WORD      TIM4__DR
      000000D0H.5 SFRSYM    DATA     BIT       F0
      000000FEH   SFRSYM    DATA     BYTE      P2_OE
      000000D0H.1 SFRSYM    DATA     BIT       F1
      000000FFH   SFRSYM    DATA     BYTE      P3_OE
      00000080H   SFRSYM    DATA     BIT       GP00
      000000E9H   SFRSYM    DATA     BYTE      P4_OE
      00000090H   SFRSYM    DATA     BIT       GP10
      00000080H.1 SFRSYM    DATA     BIT       GP01
      000000A8H.6 SFRSYM    DATA     BIT       RTCIE
      000000A0H   SFRSYM    DATA     BIT       GP20
      00000090H.1 SFRSYM    DATA     BIT       GP11
      00000080H.2 SFRSYM    DATA     BIT       GP02
      000000B0H   SFRSYM    DATA     BIT       GP30
      000000A0H.1 SFRSYM    DATA     BIT       GP21
      00000090H.2 SFRSYM    DATA     BIT       GP12
      00000080H.3 SFRSYM    DATA     BIT       GP03
      000000D8H.2 SFRSYM    DATA     BIT       PI2C_UT10
      000000B8H   SFRSYM    DATA     BIT       PLVW0
      000000A8H.1 SFRSYM    DATA     BIT       TSDIE
      000000D0H   SFRSYM    DATA     BYTE      PSW
      000000B0H.1 SFRSYM    DATA     BIT       GP31
      000000A0H.2 SFRSYM    DATA     BIT       GP22
      00000090H.3 SFRSYM    DATA     BIT       GP13
      00000080H.4 SFRSYM    DATA     BIT       GP04
      000000D8H.3 SFRSYM    DATA     BIT       PI2C_UT11
      000000B8H.1 SFRSYM    DATA     BIT       PLVW1
      000000A8H.3 SFRSYM    DATA     BIT       SPIIE
      00000088H.5 SFRSYM    DATA     BIT       TSDIF
      000000B0H.2 SFRSYM    DATA     BIT       GP32
      000000A0H.3 SFRSYM    DATA     BIT       GP23
      00000090H.4 SFRSYM    DATA     BIT       GP14
      00000080H.5 SFRSYM    DATA     BIT       GP05
      000000E8H.2 SFRSYM    DATA     BIT       GP42
      000000B0H.3 SFRSYM    DATA     BIT       GP33
      000000A0H.4 SFRSYM    DATA     BIT       GP24
      00000090H.5 SFRSYM    DATA     BIT       GP15
      00000080H.6 SFRSYM    DATA     BIT       GP06
      00000088H   SFRSYM    DATA     BIT       IT00

      01002FDFH   BLOCK     CODE     ---       LVL=0
      01002FDFH   LINE      CODE     ---       #82
      01002FDFH   LINE      CODE     ---       #83
      01002FDFH   LINE      CODE     ---       #85
      01002FEEH   LINE      CODE     ---       #86
      ---         BLOCKEND  ---      ---       LVL=0

      010016C2H   BLOCK     CODE     ---       LVL=0
      010016C2H   LINE      CODE     ---       #96
      010016C2H   LINE      CODE     ---       #97
LX51 LINKER/LOCATER V4.66.30.0                                                        04/09/2024  13:54:58  PAGE 67


      010016C2H   LINE      CODE     ---       #99
      010016CAH   LINE      CODE     ---       #100
      010016D6H   LINE      CODE     ---       #101
      010016D6H   LINE      CODE     ---       #102
      010016DAH   LINE      CODE     ---       #103
      010016DAH   LINE      CODE     ---       #105
      010016E1H   LINE      CODE     ---       #106
      010016E1H   LINE      CODE     ---       #108
      010016E1H   LINE      CODE     ---       #109
      010016E4H   LINE      CODE     ---       #110
      010016E4H   LINE      CODE     ---       #112
      010016E6H   LINE      CODE     ---       #113
      010016EFH   LINE      CODE     ---       #114
      010016EFH   LINE      CODE     ---       #116
      010016EFH   LINE      CODE     ---       #117
      010016F2H   LINE      CODE     ---       #118
      010016F2H   LINE      CODE     ---       #120
      010016F4H   LINE      CODE     ---       #121
      010016FDH   LINE      CODE     ---       #122
      010016FDH   LINE      CODE     ---       #124
      010016FDH   LINE      CODE     ---       #125
      01001700H   LINE      CODE     ---       #126
      01001700H   LINE      CODE     ---       #128
      01001700H   LINE      CODE     ---       #130
      0100170BH   LINE      CODE     ---       #131
      0100170BH   LINE      CODE     ---       #132
      01001743H   LINE      CODE     ---       #133
      01001743H   LINE      CODE     ---       #134
      01001743H   LINE      CODE     ---       #135
      01001743H   LINE      CODE     ---       #136
      01001743H   LINE      CODE     ---       #137
      0100174BH   LINE      CODE     ---       #138
      0100175AH   LINE      CODE     ---       #139
      0100175AH   LINE      CODE     ---       #140
      0100175FH   LINE      CODE     ---       #141
      01001765H   LINE      CODE     ---       #142
      0100176BH   LINE      CODE     ---       #143
      01001771H   LINE      CODE     ---       #144
      01001771H   LINE      CODE     ---       #145
      01001771H   LINE      CODE     ---       #146
      01001774H   LINE      CODE     ---       #147
      01001774H   LINE      CODE     ---       #148
      01001774H   LINE      CODE     ---       #149
      01001774H   LINE      CODE     ---       #150
      01001774H   LINE      CODE     ---       #151
      01001774H   LINE      CODE     ---       #152
      0100177BH   LINE      CODE     ---       #153
      01001782H   LINE      CODE     ---       #169
      0100178CH   LINE      CODE     ---       #170
      0100178CH   LINE      CODE     ---       #177
      01001792H   LINE      CODE     ---       #178
      01001798H   LINE      CODE     ---       #179
      0100179BH   LINE      CODE     ---       #180
      0100179BH   LINE      CODE     ---       #181
      0100179DH   LINE      CODE     ---       #182
      0100179DH   LINE      CODE     ---       #183
      0100179DH   LINE      CODE     ---       #184
      0100179DH   LINE      CODE     ---       #185
      010017A9H   LINE      CODE     ---       #186
      010017A9H   LINE      CODE     ---       #187
      010017B1H   LINE      CODE     ---       #188
      010017BDH   LINE      CODE     ---       #189
      010017BDH   LINE      CODE     ---       #190
      010017C3H   LINE      CODE     ---       #191
      010017C7H   LINE      CODE     ---       #192
LX51 LINKER/LOCATER V4.66.30.0                                                        04/09/2024  13:54:58  PAGE 68


      010017CBH   LINE      CODE     ---       #193
      010017D1H   LINE      CODE     ---       #194
      010017D1H   LINE      CODE     ---       #195
      010017D2H   LINE      CODE     ---       #197
      010017D2H   LINE      CODE     ---       #198
      010017D5H   LINE      CODE     ---       #199
      010017D5H   LINE      CODE     ---       #200
      010017D7H   LINE      CODE     ---       #201
      010017D7H   LINE      CODE     ---       #202
      010017D7H   LINE      CODE     ---       #203
      010017D7H   LINE      CODE     ---       #204
      010017D7H   LINE      CODE     ---       #205
      010017EFH   LINE      CODE     ---       #206
      010017EFH   LINE      CODE     ---       #207
      010017F7H   LINE      CODE     ---       #208
      01001803H   LINE      CODE     ---       #209
      01001803H   LINE      CODE     ---       #210
      01001809H   LINE      CODE     ---       #211
      01001811H   LINE      CODE     ---       #212
      01001818H   LINE      CODE     ---       #213
      0100181EH   LINE      CODE     ---       #214
      01001824H   LINE      CODE     ---       #215
      01001829H   LINE      CODE     ---       #216
      01001829H   LINE      CODE     ---       #217
      01001829H   LINE      CODE     ---       #218
      01001829H   LINE      CODE     ---       #219
      01001829H   LINE      CODE     ---       #220
      01001829H   LINE      CODE     ---       #221
      01001829H   LINE      CODE     ---       #237
      ---         BLOCKEND  ---      ---       LVL=0

      01001225H   BLOCK     CODE     ---       LVL=0
      01001225H   LINE      CODE     ---       #245
      01001225H   LINE      CODE     ---       #246
      01001225H   LINE      CODE     ---       #248
      0100122FH   LINE      CODE     ---       #249
      0100122FH   LINE      CODE     ---       #250
      01001236H   LINE      CODE     ---       #251
      01001238H   LINE      CODE     ---       #253
      01001238H   LINE      CODE     ---       #254
      0100123EH   LINE      CODE     ---       #255
      0100123EH   LINE      CODE     ---       #257
      01001256H   LINE      CODE     ---       #258
      01001256H   LINE      CODE     ---       #259
      0100126AH   LINE      CODE     ---       #260
      0100126AH   LINE      CODE     ---       #261
      01001270H   LINE      CODE     ---       #262
      01001271H   LINE      CODE     ---       #264
      01001271H   LINE      CODE     ---       #266
      0100127BH   LINE      CODE     ---       #267
      0100127BH   LINE      CODE     ---       #268
      01001283H   LINE      CODE     ---       #269
      0100128FH   LINE      CODE     ---       #270
      0100128FH   LINE      CODE     ---       #272
      0100128FH   LINE      CODE     ---       #273
      01001296H   LINE      CODE     ---       #274
      01001296H   LINE      CODE     ---       #281
      0100129CH   LINE      CODE     ---       #282
      010012A4H   LINE      CODE     ---       #283
      010012A9H   LINE      CODE     ---       #284
      010012A9H   LINE      CODE     ---       #285
      010012ABH   LINE      CODE     ---       #287
      010012ABH   LINE      CODE     ---       #288
      010012B1H   LINE      CODE     ---       #289
      010012B1H   LINE      CODE     ---       #292
LX51 LINKER/LOCATER V4.66.30.0                                                        04/09/2024  13:54:58  PAGE 69


      010012C2H   LINE      CODE     ---       #293
      010012C2H   LINE      CODE     ---       #294
      010012CAH   LINE      CODE     ---       #295
      010012D6H   LINE      CODE     ---       #296
      010012D6H   LINE      CODE     ---       #299
      010012D6H   LINE      CODE     ---       #300
      010012DDH   LINE      CODE     ---       #301
      010012DDH   LINE      CODE     ---       #308
      010012E3H   LINE      CODE     ---       #309
      010012EBH   LINE      CODE     ---       #310
      010012F0H   LINE      CODE     ---       #311
      010012F0H   LINE      CODE     ---       #312
      010012F2H   LINE      CODE     ---       #314
      010012F2H   LINE      CODE     ---       #315
      010012F8H   LINE      CODE     ---       #316
      010012F8H   LINE      CODE     ---       #319
      01001315H   LINE      CODE     ---       #320
      01001315H   LINE      CODE     ---       #321
      0100131DH   LINE      CODE     ---       #322
      01001329H   LINE      CODE     ---       #323
      01001329H   LINE      CODE     ---       #325
      01001329H   LINE      CODE     ---       #326
      01001330H   LINE      CODE     ---       #327
      01001330H   LINE      CODE     ---       #334
      01001336H   LINE      CODE     ---       #335
      0100133EH   LINE      CODE     ---       #336
      01001343H   LINE      CODE     ---       #337
      01001343H   LINE      CODE     ---       #338
      01001345H   LINE      CODE     ---       #339
      01001351H   LINE      CODE     ---       #340
      01001351H   LINE      CODE     ---       #341
      01001358H   LINE      CODE     ---       #342
      01001358H   LINE      CODE     ---       #345
      01001383H   LINE      CODE     ---       #346
      01001383H   LINE      CODE     ---       #347
      0100138BH   LINE      CODE     ---       #348
      01001397H   LINE      CODE     ---       #349
      01001397H   LINE      CODE     ---       #351
      01001397H   LINE      CODE     ---       #352
      0100139EH   LINE      CODE     ---       #353
      0100139EH   LINE      CODE     ---       #360
      010013A4H   LINE      CODE     ---       #361
      010013ACH   LINE      CODE     ---       #362
      010013B1H   LINE      CODE     ---       #363
      010013B1H   LINE      CODE     ---       #364
      010013B2H   LINE      CODE     ---       #365
      010013BEH   LINE      CODE     ---       #366
      010013BEH   LINE      CODE     ---       #367
      010013C5H   LINE      CODE     ---       #368
      010013C5H   LINE      CODE     ---       #369
      010013C5H   LINE      CODE     ---       #370
      010013C5H   LINE      CODE     ---       #372
      ---         BLOCKEND  ---      ---       LVL=0

      01002797H   BLOCK     CODE     ---       LVL=0
      01002797H   BLOCK     CODE     NEAR LAB  LVL=1
      02000207H   SYMBOL    XDATA    BYTE      UV_CNT
      02000208H   SYMBOL    XDATA    BYTE      OV_CNT
      ---         BLOCKEND  ---      ---       LVL=1
      01002797H   LINE      CODE     ---       #380
      01002797H   LINE      CODE     ---       #381
      01002797H   LINE      CODE     ---       #384
      010027A1H   LINE      CODE     ---       #385
      010027A1H   LINE      CODE     ---       #386
      010027C0H   LINE      CODE     ---       #387
LX51 LINKER/LOCATER V4.66.30.0                                                        04/09/2024  13:54:58  PAGE 70


      010027C0H   LINE      CODE     ---       #388
      010027C6H   LINE      CODE     ---       #389
      010027CAH   LINE      CODE     ---       #390
      010027CDH   LINE      CODE     ---       #392
      010027CDH   LINE      CODE     ---       #393
      010027D5H   LINE      CODE     ---       #394
      010027D5H   LINE      CODE     ---       #395
      010027D5H   LINE      CODE     ---       #396
      010027D7H   LINE      CODE     ---       #397
      010027F2H   LINE      CODE     ---       #398
      010027F2H   LINE      CODE     ---       #399
      010027F8H   LINE      CODE     ---       #400
      010027FEH   LINE      CODE     ---       #401
      01002801H   LINE      CODE     ---       #403
      01002801H   LINE      CODE     ---       #404
      0100280AH   LINE      CODE     ---       #405
      0100280FH   LINE      CODE     ---       #406
      0100280FH   LINE      CODE     ---       #407
      01002810H   LINE      CODE     ---       #409
      01002810H   LINE      CODE     ---       #410
      01002816H   LINE      CODE     ---       #411
      01002818H   LINE      CODE     ---       #412
      01002818H   LINE      CODE     ---       #413
      01002818H   LINE      CODE     ---       #415
      ---         BLOCKEND  ---      ---       LVL=0

      0100182AH   BLOCK     CODE     ---       LVL=0
      0100182AH   LINE      CODE     ---       #423
      0100182AH   LINE      CODE     ---       #424
      0100182AH   LINE      CODE     ---       #426
      01001835H   LINE      CODE     ---       #427
      01001835H   LINE      CODE     ---       #428
      0100183DH   LINE      CODE     ---       #429
      0100184CH   LINE      CODE     ---       #430
      0100184CH   LINE      CODE     ---       #431
      01001850H   LINE      CODE     ---       #433
      01001884H   LINE      CODE     ---       #434
      01001884H   LINE      CODE     ---       #435
      0100188CH   LINE      CODE     ---       #436
      0100188EH   LINE      CODE     ---       #437
      0100189AH   LINE      CODE     ---       #438
      0100189AH   LINE      CODE     ---       #439
      010018A1H   LINE      CODE     ---       #440
      010018A1H   LINE      CODE     ---       #443
      010018CEH   LINE      CODE     ---       #444
      010018CEH   LINE      CODE     ---       #445
      010018D6H   LINE      CODE     ---       #446
      010018D8H   LINE      CODE     ---       #447
      010018E4H   LINE      CODE     ---       #448
      010018E4H   LINE      CODE     ---       #449
      010018EBH   LINE      CODE     ---       #450
      010018EBH   LINE      CODE     ---       #453
      0100191CH   LINE      CODE     ---       #454
      0100191CH   LINE      CODE     ---       #455
      01001924H   LINE      CODE     ---       #456
      01001926H   LINE      CODE     ---       #457
      01001932H   LINE      CODE     ---       #458
      01001932H   LINE      CODE     ---       #459
      01001939H   LINE      CODE     ---       #460
      01001939H   LINE      CODE     ---       #462
      0100193FH   LINE      CODE     ---       #463
      01001943H   LINE      CODE     ---       #464
      01001947H   LINE      CODE     ---       #465
      0100194EH   LINE      CODE     ---       #466
      01001970H   LINE      CODE     ---       #467
LX51 LINKER/LOCATER V4.66.30.0                                                        04/09/2024  13:54:58  PAGE 71


      01001970H   LINE      CODE     ---       #468
      01001978H   LINE      CODE     ---       #469
      01001981H   LINE      CODE     ---       #470
      01001986H   LINE      CODE     ---       #471
      01001986H   LINE      CODE     ---       #472
      01001986H   LINE      CODE     ---       #473
      01001986H   LINE      CODE     ---       #475
      ---         BLOCKEND  ---      ---       LVL=0

      010021CCH   BLOCK     CODE     ---       LVL=0
      00000001H   SYMBOL    DATA     ---       h_Cur
      010021CCH   LINE      CODE     ---       #484
      010021CCH   LINE      CODE     ---       #485
      010021CCH   LINE      CODE     ---       #487
      010021DDH   LINE      CODE     ---       #488
      010021DDH   LINE      CODE     ---       #489
      010021EDH   LINE      CODE     ---       #490
      010021FDH   LINE      CODE     ---       #491
      0100220DH   LINE      CODE     ---       #493
      0100221AH   LINE      CODE     ---       #494
      01002224H   LINE      CODE     ---       #495
      0100222EH   LINE      CODE     ---       #497
      0100225DH   LINE      CODE     ---       #498
      0100225DH   LINE      CODE     ---       #499
      01002262H   LINE      CODE     ---       #500
      0100226AH   LINE      CODE     ---       #501
      0100226AH   LINE      CODE     ---       #502
      01002273H   LINE      CODE     ---       #503
      01002278H   LINE      CODE     ---       #504
      01002280H   LINE      CODE     ---       #505
      01002289H   LINE      CODE     ---       #506
      01002292H   LINE      CODE     ---       #507
      01002296H   LINE      CODE     ---       #508
      01002296H   LINE      CODE     ---       #509
      01002296H   LINE      CODE     ---       #510
      0100229EH   LINE      CODE     ---       #511
      0100229EH   LINE      CODE     ---       #512
      010022A3H   LINE      CODE     ---       #513
      010022A3H   LINE      CODE     ---       #514
      010022A3H   LINE      CODE     ---       #516
      ---         BLOCKEND  ---      ---       LVL=0

      01002FBEH   BLOCK     CODE     ---       LVL=0
      01002FBEH   LINE      CODE     ---       #524
      01002FBEH   LINE      CODE     ---       #525
      01002FBEH   LINE      CODE     ---       #528
      01002FC5H   LINE      CODE     ---       #529
      01002FC9H   LINE      CODE     ---       #530
      01002FCBH   LINE      CODE     ---       #541
      01002FD2H   LINE      CODE     ---       #542
      01002FD8H   LINE      CODE     ---       #543
      01002FDEH   LINE      CODE     ---       #546
      ---         BLOCKEND  ---      ---       LVL=0

      ---         MODULE    ---      ---       PWM_SPEEDCONTROL
      02000172H   PUBLIC    XDATA    ---       PWMCurve_speedArray
      02000168H   PUBLIC    XDATA    ---       mcPWM_Input
      0200014EH   PUBLIC    XDATA    ---       PWMCurve_dutyArray
      0100241DH   PUBLIC    CODE     ---       VSP_speedControl
      01002710H   PUBLIC    CODE     ---       VSPShutDown_Function
      000000E8H.3 SFRSYM    DATA     BIT       GP43
      000000B0H.4 SFRSYM    DATA     BIT       GP34
      000000A0H.5 SFRSYM    DATA     BIT       GP25
      00000090H.6 SFRSYM    DATA     BIT       GP16
      00000080H.7 SFRSYM    DATA     BIT       GP07
LX51 LINKER/LOCATER V4.66.30.0                                                        04/09/2024  13:54:58  PAGE 72


      00000088H.1 SFRSYM    DATA     BIT       IT01
      00000088H.3 SFRSYM    DATA     BIT       IT10
      000000E8H.4 SFRSYM    DATA     BIT       GP44
      000000B0H.5 SFRSYM    DATA     BIT       GP35
      000000A0H.6 SFRSYM    DATA     BIT       GP26
      00000090H.7 SFRSYM    DATA     BIT       GP17
      00000080H   SFRSYM    DATA     BYTE      P0
      00000088H.4 SFRSYM    DATA     BIT       IT11
      000000C9H   SFRSYM    DATA     BYTE      RST_SR
      000000D9H   SFRSYM    DATA     BYTE      EVT_FILT
      000000E8H.5 SFRSYM    DATA     BIT       GP45
      000000B0H.6 SFRSYM    DATA     BIT       GP36
      000000A0H.7 SFRSYM    DATA     BIT       GP27
      00000090H   SFRSYM    DATA     BYTE      P1
      000000B0H.7 SFRSYM    DATA     BIT       GP37
      000000A0H   SFRSYM    DATA     BYTE      P2
      000000B0H   SFRSYM    DATA     BYTE      P3
      000000E8H   SFRSYM    DATA     BYTE      P4
      000000D0H.6 SFRSYM    DATA     BIT       AC
      000000A8H.7 SFRSYM    DATA     BIT       EA
      000000D5H   SFRSYM    DATA     BYTE      CMP_CR0
      000000D6H   SFRSYM    DATA     BYTE      CMP_CR1
      000000C6H   SFRSYM    DATA     WORD      MDU_A
      000000DAH   SFRSYM    DATA     BYTE      CMP_CR2
      000000C4H   SFRSYM    DATA     WORD      MDU_B
      000000B8H.2 SFRSYM    DATA     BIT       PX00
      000000DCH   SFRSYM    DATA     BYTE      CMP_CR3
      000000F8H   SFRSYM    DATA     BIT       OISUH
      000000C2H   SFRSYM    DATA     WORD      MDU_C
      000000B8H.3 SFRSYM    DATA     BIT       PX01
      000000B8H.4 SFRSYM    DATA     BIT       PX10
      000000E1H   SFRSYM    DATA     BYTE      CMP_CR4
      000000F8H.2 SFRSYM    DATA     BIT       OISVH
      000000CBH   SFRSYM    DATA     BYTE      MDU_D
      000000B8H.5 SFRSYM    DATA     BIT       PX11
      000000F8H.4 SFRSYM    DATA     BIT       OISWH
      000000F8H.1 SFRSYM    DATA     BIT       OISUL
      000000A8H   SFRSYM    DATA     BYTE      IE
      000000F8H.3 SFRSYM    DATA     BIT       OISVL
      000000F9H   SFRSYM    DATA     BYTE      PI_CR
      000000F8H.5 SFRSYM    DATA     BIT       OISWL
      000000D8H   SFRSYM    DATA     BIT       PCMP30
      000000AAH   SFRSYM    DATA     WORD      TIM2__CNTR
      000000D8H.1 SFRSYM    DATA     BIT       PCMP31
      000000A2H   SFRSYM    DATA     WORD      TIM3__CNTR
      00000092H   SFRSYM    DATA     WORD      TIM4__CNTR
      00000098H   SFRSYM    DATA     BIT       RI
      00000098H.6 SFRSYM    DATA     BIT       UT_MOD0
      00000098H.7 SFRSYM    DATA     BIT       UT_MOD1
      000000D0H.7 SFRSYM    DATA     BIT       CY
      00000098H.1 SFRSYM    DATA     BIT       TI
      000000C0H.2 SFRSYM    DATA     BIT       PTIM10
      00000084H   SFRSYM    DATA     BYTE      FLA_KEY
      000000C0H   SFRSYM    DATA     BIT       PTIM20
      000000C0H.3 SFRSYM    DATA     BIT       PTIM11
      00000098H   SFRSYM    DATA     BYTE      UT_CR
      000000C8H.2 SFRSYM    DATA     BIT       PTIM30
      000000C0H.1 SFRSYM    DATA     BIT       PTIM21
      00000099H   SFRSYM    DATA     BYTE      UT_DR
      000000C8H.3 SFRSYM    DATA     BIT       PTIM31
      000000C8H.6 SFRSYM    DATA     BIT       PTIM40
      000000C8H.7 SFRSYM    DATA     BIT       PTIM41
      000000D0H.2 SFRSYM    DATA     BIT       OV
      0000009AH   SFRSYM    DATA     WORD      UT_BAUD
      000000D8H.4 SFRSYM    DATA     BIT       PSPI_UT20
LX51 LINKER/LOCATER V4.66.30.0                                                        04/09/2024  13:54:58  PAGE 73


      000000D8H.5 SFRSYM    DATA     BIT       PSPI_UT21
      000000C8H.4 SFRSYM    DATA     BIT       PSYSTICK0
      000000C8H.5 SFRSYM    DATA     BIT       PSYSTICK1
      00000087H   SFRSYM    DATA     BYTE      PCON
      00000088H   SFRSYM    DATA     BYTE      TCON
      00000082H   SFRSYM    DATA     WORD      DPTR
      00000088H.2 SFRSYM    DATA     BIT       IF0
      000000AEH   SFRSYM    DATA     WORD      TIM2__ARR
      000000A1H   SFRSYM    DATA     BYTE      TIM2_CR0
      000000A6H   SFRSYM    DATA     WORD      TIM3__ARR
      0000009CH   SFRSYM    DATA     BYTE      TIM3_CR0
      000000A9H   SFRSYM    DATA     BYTE      TIM2_CR1
      00000096H   SFRSYM    DATA     WORD      TIM4__ARR
      0000009EH   SFRSYM    DATA     BYTE      TIM4_CR0
      0000009DH   SFRSYM    DATA     BYTE      TIM3_CR1
      000000F8H   SFRSYM    DATA     BYTE      DRV_OUT
      0000009FH   SFRSYM    DATA     BYTE      TIM4_CR1
      000000E0H   SFRSYM    DATA     BYTE      ACC
      000000DBH   SFRSYM    DATA     BYTE      LVSR
      000000A8H.4 SFRSYM    DATA     BIT       ES0
      00000085H   SFRSYM    DATA     BYTE      FLA_CR
      000000C0H.4 SFRSYM    DATA     BIT       PADC0
      000000B8H   SFRSYM    DATA     BYTE      IP0
      000000C0H.5 SFRSYM    DATA     BIT       PADC1
      000000C0H   SFRSYM    DATA     BYTE      IP1
      000000C8H   SFRSYM    DATA     BYTE      IP2
      00000098H.2 SFRSYM    DATA     BIT       RB8
      000000D8H   SFRSYM    DATA     BYTE      IP3
      000000A8H   SFRSYM    DATA     BIT       EX0
      00000098H.3 SFRSYM    DATA     BIT       TB8
      000000A8H.2 SFRSYM    DATA     BIT       EX1
      000000D0H   SFRSYM    DATA     BIT       P
      0000008AH   SFRSYM    DATA     BYTE      UT2_CR
      00000089H   SFRSYM    DATA     BYTE      UT2_DR
      00000098H.5 SFRSYM    DATA     BIT       SM2
      000000D8H.6 SFRSYM    DATA     BIT       PDMA0
      000000D8H.7 SFRSYM    DATA     BIT       PDMA1
      000000D0H.3 SFRSYM    DATA     BIT       RS0
      000000D0H.4 SFRSYM    DATA     BIT       RS1
      000000CAH   SFRSYM    DATA     BYTE      MDU_MD
      000000C1H   SFRSYM    DATA     BYTE      MDU_CR
      000000F8H.7 SFRSYM    DATA     BIT       MOE
      000000C0H.6 SFRSYM    DATA     BIT       PCMP0
      000000C0H.7 SFRSYM    DATA     BIT       PCMP1
      00000098H.4 SFRSYM    DATA     BIT       REN
      000000D7H   SFRSYM    DATA     BYTE      CMP_SR
      000000C8H   SFRSYM    DATA     BIT       PRTC0
      000000C8H.1 SFRSYM    DATA     BIT       PRTC1
      000000B8H.6 SFRSYM    DATA     BIT       PDRV0
      000000B8H.7 SFRSYM    DATA     BIT       PDRV1
      000000D1H   SFRSYM    DATA     BYTE      P1_IE
      000000D3H   SFRSYM    DATA     BYTE      P2_IE
      000000D2H   SFRSYM    DATA     BYTE      P1_IF
      000000D4H   SFRSYM    DATA     BYTE      P2_IF
      000000ACH   SFRSYM    DATA     WORD      TIM2__DR
      000000FCH   SFRSYM    DATA     BYTE      P0_OE
      000000A4H   SFRSYM    DATA     WORD      TIM3__DR
      000000FDH   SFRSYM    DATA     BYTE      P1_OE
      00000094H   SFRSYM    DATA     WORD      TIM4__DR
      000000D0H.5 SFRSYM    DATA     BIT       F0
      000000FEH   SFRSYM    DATA     BYTE      P2_OE
      000000D0H.1 SFRSYM    DATA     BIT       F1
      000000FFH   SFRSYM    DATA     BYTE      P3_OE
      00000080H   SFRSYM    DATA     BIT       GP00
      000000E9H   SFRSYM    DATA     BYTE      P4_OE
LX51 LINKER/LOCATER V4.66.30.0                                                        04/09/2024  13:54:58  PAGE 74


      00000090H   SFRSYM    DATA     BIT       GP10
      00000080H.1 SFRSYM    DATA     BIT       GP01
      000000A8H.6 SFRSYM    DATA     BIT       RTCIE
      000000A0H   SFRSYM    DATA     BIT       GP20
      00000090H.1 SFRSYM    DATA     BIT       GP11
      00000080H.2 SFRSYM    DATA     BIT       GP02
      000000B0H   SFRSYM    DATA     BIT       GP30
      000000A0H.1 SFRSYM    DATA     BIT       GP21
      00000090H.2 SFRSYM    DATA     BIT       GP12
      00000080H.3 SFRSYM    DATA     BIT       GP03
      000000D8H.2 SFRSYM    DATA     BIT       PI2C_UT10
      000000B8H   SFRSYM    DATA     BIT       PLVW0
      000000A8H.1 SFRSYM    DATA     BIT       TSDIE
      000000D0H   SFRSYM    DATA     BYTE      PSW
      000000B0H.1 SFRSYM    DATA     BIT       GP31
      000000A0H.2 SFRSYM    DATA     BIT       GP22
      00000090H.3 SFRSYM    DATA     BIT       GP13
      00000080H.4 SFRSYM    DATA     BIT       GP04
      000000D8H.3 SFRSYM    DATA     BIT       PI2C_UT11
      000000B8H.1 SFRSYM    DATA     BIT       PLVW1
      000000A8H.3 SFRSYM    DATA     BIT       SPIIE
      00000088H.5 SFRSYM    DATA     BIT       TSDIF
      000000B0H.2 SFRSYM    DATA     BIT       GP32
      000000A0H.3 SFRSYM    DATA     BIT       GP23
      00000090H.4 SFRSYM    DATA     BIT       GP14
      00000080H.5 SFRSYM    DATA     BIT       GP05
      000000E8H.2 SFRSYM    DATA     BIT       GP42
      000000B0H.3 SFRSYM    DATA     BIT       GP33
      000000A0H.4 SFRSYM    DATA     BIT       GP24
      00000090H.5 SFRSYM    DATA     BIT       GP15
      00000080H.6 SFRSYM    DATA     BIT       GP06
      00000088H   SFRSYM    DATA     BIT       IT00

      01002710H   BLOCK     CODE     ---       LVL=0
      01002710H   LINE      CODE     ---       #127
      01002710H   LINE      CODE     ---       #128
      01002710H   LINE      CODE     ---       #129
      01002718H   LINE      CODE     ---       #130
      01002718H   LINE      CODE     ---       #131
      0100271EH   LINE      CODE     ---       #132
      01002726H   LINE      CODE     ---       #133
      01002732H   LINE      CODE     ---       #134
      01002732H   LINE      CODE     ---       #135
      01002736H   LINE      CODE     ---       #136
      01002739H   LINE      CODE     ---       #137
      01002739H   LINE      CODE     ---       #138
      0100273BH   LINE      CODE     ---       #140
      0100273BH   LINE      CODE     ---       #141
      01002741H   LINE      CODE     ---       #142
      01002741H   LINE      CODE     ---       #144
      01002749H   LINE      CODE     ---       #145
      01002749H   LINE      CODE     ---       #146
      0100274FH   LINE      CODE     ---       #147
      01002757H   LINE      CODE     ---       #148
      01002763H   LINE      CODE     ---       #149
      01002763H   LINE      CODE     ---       #150
      01002767H   LINE      CODE     ---       #151
      0100276DH   LINE      CODE     ---       #152
      01002771H   LINE      CODE     ---       #153
      01002773H   LINE      CODE     ---       #154
      01002777H   LINE      CODE     ---       #155
      01002777H   LINE      CODE     ---       #156
      01002779H   LINE      CODE     ---       #158
      01002779H   LINE      CODE     ---       #159
      0100277FH   LINE      CODE     ---       #160
LX51 LINKER/LOCATER V4.66.30.0                                                        04/09/2024  13:54:58  PAGE 75


      0100277FH   LINE      CODE     ---       #162
      01002786H   LINE      CODE     ---       #163
      01002786H   LINE      CODE     ---       #164
      0100278CH   LINE      CODE     ---       #165
      0100278DH   LINE      CODE     ---       #166
      01002791H   LINE      CODE     ---       #167
      01002791H   LINE      CODE     ---       #168
      01002796H   LINE      CODE     ---       #169
      01002796H   LINE      CODE     ---       #170
      ---         BLOCKEND  ---      ---       LVL=0

      0100241DH   BLOCK     CODE     ---       LVL=0
      0100241DH   LINE      CODE     ---       #178
      0100241DH   LINE      CODE     ---       #179
      0100241DH   LINE      CODE     ---       #180
      01002459H   LINE      CODE     ---       #181
      01002468H   LINE      CODE     ---       #183
      0100246BH   LINE      CODE     ---       #185
      01002473H   LINE      CODE     ---       #186
      01002473H   LINE      CODE     ---       #187
      01002482H   LINE      CODE     ---       #188
      01002482H   LINE      CODE     ---       #189
      010024A7H   LINE      CODE     ---       #191
      010024AFH   LINE      CODE     ---       #192
      010024AFH   LINE      CODE     ---       #193
      010024B9H   LINE      CODE     ---       #194
      010024B9H   LINE      CODE     ---       #195
      010024BAH   LINE      CODE     ---       #197
      010024BAH   LINE      CODE     ---       #198
      010024C4H   LINE      CODE     ---       #199
      010024C4H   LINE      CODE     ---       #200
      010024C5H   LINE      CODE     ---       #202
      010024C5H   LINE      CODE     ---       #203
      010024CCH   LINE      CODE     ---       #204
      010024CCH   LINE      CODE     ---       #205
      ---         BLOCKEND  ---      ---       LVL=0

      ---         MODULE    ---      ---       SIGNALOUTPUTCONTROL
      0200020FH   PUBLIC    XDATA    ---       SO_Var
      01002EFBH   PUBLIC    CODE     ---       FG_Update_Event
      010030A9H   PUBLIC    CODE     ---       _FG_setFakeSpped
      01002ECFH   PUBLIC    CODE     ---       SignalOutput_Counter
      01001ADBH   PUBLIC    CODE     ---       SignalOutput_Process
      0100308BH   PUBLIC    CODE     ---       SignalOutput_initial
      000000E8H.3 SFRSYM    DATA     BIT       GP43
      000000B0H.4 SFRSYM    DATA     BIT       GP34
      000000A0H.5 SFRSYM    DATA     BIT       GP25
      00000090H.6 SFRSYM    DATA     BIT       GP16
      00000080H.7 SFRSYM    DATA     BIT       GP07
      00000088H.1 SFRSYM    DATA     BIT       IT01
      00000088H.3 SFRSYM    DATA     BIT       IT10
      000000E8H.4 SFRSYM    DATA     BIT       GP44
      000000B0H.5 SFRSYM    DATA     BIT       GP35
      000000A0H.6 SFRSYM    DATA     BIT       GP26
      00000090H.7 SFRSYM    DATA     BIT       GP17
      00000080H   SFRSYM    DATA     BYTE      P0
      00000088H.4 SFRSYM    DATA     BIT       IT11
      000000C9H   SFRSYM    DATA     BYTE      RST_SR
      000000D9H   SFRSYM    DATA     BYTE      EVT_FILT
      000000E8H.5 SFRSYM    DATA     BIT       GP45
      000000B0H.6 SFRSYM    DATA     BIT       GP36
      000000A0H.7 SFRSYM    DATA     BIT       GP27
      00000090H   SFRSYM    DATA     BYTE      P1
      000000B0H.7 SFRSYM    DATA     BIT       GP37
      000000A0H   SFRSYM    DATA     BYTE      P2
LX51 LINKER/LOCATER V4.66.30.0                                                        04/09/2024  13:54:58  PAGE 76


      000000B0H   SFRSYM    DATA     BYTE      P3
      000000E8H   SFRSYM    DATA     BYTE      P4
      000000D0H.6 SFRSYM    DATA     BIT       AC
      000000A8H.7 SFRSYM    DATA     BIT       EA
      000000D5H   SFRSYM    DATA     BYTE      CMP_CR0
      000000D6H   SFRSYM    DATA     BYTE      CMP_CR1
      000000C6H   SFRSYM    DATA     WORD      MDU_A
      000000DAH   SFRSYM    DATA     BYTE      CMP_CR2
      000000C4H   SFRSYM    DATA     WORD      MDU_B
      000000B8H.2 SFRSYM    DATA     BIT       PX00
      000000DCH   SFRSYM    DATA     BYTE      CMP_CR3
      000000F8H   SFRSYM    DATA     BIT       OISUH
      000000C2H   SFRSYM    DATA     WORD      MDU_C
      000000B8H.3 SFRSYM    DATA     BIT       PX01
      000000B8H.4 SFRSYM    DATA     BIT       PX10
      000000E1H   SFRSYM    DATA     BYTE      CMP_CR4
      000000F8H.2 SFRSYM    DATA     BIT       OISVH
      000000CBH   SFRSYM    DATA     BYTE      MDU_D
      000000B8H.5 SFRSYM    DATA     BIT       PX11
      000000F8H.4 SFRSYM    DATA     BIT       OISWH
      000000F8H.1 SFRSYM    DATA     BIT       OISUL
      000000A8H   SFRSYM    DATA     BYTE      IE
      000000F8H.3 SFRSYM    DATA     BIT       OISVL
      000000F9H   SFRSYM    DATA     BYTE      PI_CR
      000000F8H.5 SFRSYM    DATA     BIT       OISWL
      000000D8H   SFRSYM    DATA     BIT       PCMP30
      000000AAH   SFRSYM    DATA     WORD      TIM2__CNTR
      000000D8H.1 SFRSYM    DATA     BIT       PCMP31
      000000A2H   SFRSYM    DATA     WORD      TIM3__CNTR
      00000092H   SFRSYM    DATA     WORD      TIM4__CNTR
      00000098H   SFRSYM    DATA     BIT       RI
      00000098H.6 SFRSYM    DATA     BIT       UT_MOD0
      00000098H.7 SFRSYM    DATA     BIT       UT_MOD1
      000000D0H.7 SFRSYM    DATA     BIT       CY
      00000098H.1 SFRSYM    DATA     BIT       TI
      000000C0H.2 SFRSYM    DATA     BIT       PTIM10
      00000084H   SFRSYM    DATA     BYTE      FLA_KEY
      000000C0H   SFRSYM    DATA     BIT       PTIM20
      000000C0H.3 SFRSYM    DATA     BIT       PTIM11
      00000098H   SFRSYM    DATA     BYTE      UT_CR
      000000C8H.2 SFRSYM    DATA     BIT       PTIM30
      000000C0H.1 SFRSYM    DATA     BIT       PTIM21
      00000099H   SFRSYM    DATA     BYTE      UT_DR
      000000C8H.3 SFRSYM    DATA     BIT       PTIM31
      000000C8H.6 SFRSYM    DATA     BIT       PTIM40
      000000C8H.7 SFRSYM    DATA     BIT       PTIM41
      000000D0H.2 SFRSYM    DATA     BIT       OV
      0000009AH   SFRSYM    DATA     WORD      UT_BAUD
      000000D8H.4 SFRSYM    DATA     BIT       PSPI_UT20
      000000D8H.5 SFRSYM    DATA     BIT       PSPI_UT21
      000000C8H.4 SFRSYM    DATA     BIT       PSYSTICK0
      000000C8H.5 SFRSYM    DATA     BIT       PSYSTICK1
      00000087H   SFRSYM    DATA     BYTE      PCON
      00000088H   SFRSYM    DATA     BYTE      TCON
      00000082H   SFRSYM    DATA     WORD      DPTR
      00000088H.2 SFRSYM    DATA     BIT       IF0
      000000AEH   SFRSYM    DATA     WORD      TIM2__ARR
      000000A1H   SFRSYM    DATA     BYTE      TIM2_CR0
      000000A6H   SFRSYM    DATA     WORD      TIM3__ARR
      0000009CH   SFRSYM    DATA     BYTE      TIM3_CR0
      000000A9H   SFRSYM    DATA     BYTE      TIM2_CR1
      00000096H   SFRSYM    DATA     WORD      TIM4__ARR
      0000009EH   SFRSYM    DATA     BYTE      TIM4_CR0
      0000009DH   SFRSYM    DATA     BYTE      TIM3_CR1
      000000F8H   SFRSYM    DATA     BYTE      DRV_OUT
LX51 LINKER/LOCATER V4.66.30.0                                                        04/09/2024  13:54:58  PAGE 77


      0000009FH   SFRSYM    DATA     BYTE      TIM4_CR1
      000000E0H   SFRSYM    DATA     BYTE      ACC
      000000DBH   SFRSYM    DATA     BYTE      LVSR
      000000A8H.4 SFRSYM    DATA     BIT       ES0
      00000085H   SFRSYM    DATA     BYTE      FLA_CR
      000000C0H.4 SFRSYM    DATA     BIT       PADC0
      000000B8H   SFRSYM    DATA     BYTE      IP0
      000000C0H.5 SFRSYM    DATA     BIT       PADC1
      000000C0H   SFRSYM    DATA     BYTE      IP1
      000000C8H   SFRSYM    DATA     BYTE      IP2
      00000098H.2 SFRSYM    DATA     BIT       RB8
      000000D8H   SFRSYM    DATA     BYTE      IP3
      000000A8H   SFRSYM    DATA     BIT       EX0
      00000098H.3 SFRSYM    DATA     BIT       TB8
      000000A8H.2 SFRSYM    DATA     BIT       EX1
      000000D0H   SFRSYM    DATA     BIT       P
      0000008AH   SFRSYM    DATA     BYTE      UT2_CR
      00000089H   SFRSYM    DATA     BYTE      UT2_DR
      00000098H.5 SFRSYM    DATA     BIT       SM2
      000000D8H.6 SFRSYM    DATA     BIT       PDMA0
      000000D8H.7 SFRSYM    DATA     BIT       PDMA1
      000000D0H.3 SFRSYM    DATA     BIT       RS0
      000000D0H.4 SFRSYM    DATA     BIT       RS1
      000000CAH   SFRSYM    DATA     BYTE      MDU_MD
      000000C1H   SFRSYM    DATA     BYTE      MDU_CR
      000000F8H.7 SFRSYM    DATA     BIT       MOE
      000000C0H.6 SFRSYM    DATA     BIT       PCMP0
      000000C0H.7 SFRSYM    DATA     BIT       PCMP1
      00000098H.4 SFRSYM    DATA     BIT       REN
      000000D7H   SFRSYM    DATA     BYTE      CMP_SR
      000000C8H   SFRSYM    DATA     BIT       PRTC0
      000000C8H.1 SFRSYM    DATA     BIT       PRTC1
      000000B8H.6 SFRSYM    DATA     BIT       PDRV0
      000000B8H.7 SFRSYM    DATA     BIT       PDRV1
      000000D1H   SFRSYM    DATA     BYTE      P1_IE
      000000D3H   SFRSYM    DATA     BYTE      P2_IE
      000000D2H   SFRSYM    DATA     BYTE      P1_IF
      000000D4H   SFRSYM    DATA     BYTE      P2_IF
      000000ACH   SFRSYM    DATA     WORD      TIM2__DR
      000000FCH   SFRSYM    DATA     BYTE      P0_OE
      000000A4H   SFRSYM    DATA     WORD      TIM3__DR
      000000FDH   SFRSYM    DATA     BYTE      P1_OE
      00000094H   SFRSYM    DATA     WORD      TIM4__DR
      000000D0H.5 SFRSYM    DATA     BIT       F0
      000000FEH   SFRSYM    DATA     BYTE      P2_OE
      000000D0H.1 SFRSYM    DATA     BIT       F1
      000000FFH   SFRSYM    DATA     BYTE      P3_OE
      00000080H   SFRSYM    DATA     BIT       GP00
      000000E9H   SFRSYM    DATA     BYTE      P4_OE
      00000090H   SFRSYM    DATA     BIT       GP10
      00000080H.1 SFRSYM    DATA     BIT       GP01
      000000A8H.6 SFRSYM    DATA     BIT       RTCIE
      000000A0H   SFRSYM    DATA     BIT       GP20
      00000090H.1 SFRSYM    DATA     BIT       GP11
      00000080H.2 SFRSYM    DATA     BIT       GP02
      000000B0H   SFRSYM    DATA     BIT       GP30
      000000A0H.1 SFRSYM    DATA     BIT       GP21
      00000090H.2 SFRSYM    DATA     BIT       GP12
      00000080H.3 SFRSYM    DATA     BIT       GP03
      000000D8H.2 SFRSYM    DATA     BIT       PI2C_UT10
      000000B8H   SFRSYM    DATA     BIT       PLVW0
      000000A8H.1 SFRSYM    DATA     BIT       TSDIE
      000000D0H   SFRSYM    DATA     BYTE      PSW
      000000B0H.1 SFRSYM    DATA     BIT       GP31
      000000A0H.2 SFRSYM    DATA     BIT       GP22
LX51 LINKER/LOCATER V4.66.30.0                                                        04/09/2024  13:54:58  PAGE 78


      00000090H.3 SFRSYM    DATA     BIT       GP13
      00000080H.4 SFRSYM    DATA     BIT       GP04
      000000D8H.3 SFRSYM    DATA     BIT       PI2C_UT11
      000000B8H.1 SFRSYM    DATA     BIT       PLVW1
      000000A8H.3 SFRSYM    DATA     BIT       SPIIE
      00000088H.5 SFRSYM    DATA     BIT       TSDIF
      000000B0H.2 SFRSYM    DATA     BIT       GP32
      000000A0H.3 SFRSYM    DATA     BIT       GP23
      00000090H.4 SFRSYM    DATA     BIT       GP14
      00000080H.5 SFRSYM    DATA     BIT       GP05
      000000E8H.2 SFRSYM    DATA     BIT       GP42
      000000B0H.3 SFRSYM    DATA     BIT       GP33
      000000A0H.4 SFRSYM    DATA     BIT       GP24
      00000090H.5 SFRSYM    DATA     BIT       GP15
      00000080H.6 SFRSYM    DATA     BIT       GP06
      00000088H   SFRSYM    DATA     BIT       IT00

      0100308BH   BLOCK     CODE     ---       LVL=0
      0100308BH   LINE      CODE     ---       #62
      0100308BH   LINE      CODE     ---       #63
      0100308BH   LINE      CODE     ---       #65
      0100308BH   LINE      CODE     ---       #66
      01003090H   LINE      CODE     ---       #67
      01003092H   LINE      CODE     ---       #68
      0100309AH   LINE      CODE     ---       #69
      0100309AH   LINE      CODE     ---       #77
      ---         BLOCKEND  ---      ---       LVL=0

      01001ADBH   BLOCK     CODE     ---       LVL=0
      01001ADBH   LINE      CODE     ---       #80
      01001ADBH   LINE      CODE     ---       #81
      01001ADBH   LINE      CODE     ---       #84
      01001ADBH   LINE      CODE     ---       #85
      01001B00H   LINE      CODE     ---       #86
      01001B00H   LINE      CODE     ---       #87
      01001B0BH   LINE      CODE     ---       #88
      01001B0BH   LINE      CODE     ---       #89
      01001B58H   LINE      CODE     ---       #90
      01001B5DH   LINE      CODE     ---       #91
      01001B67H   LINE      CODE     ---       #92
      01001B69H   LINE      CODE     ---       #94
      01001B69H   LINE      CODE     ---       #95
      01001BBEH   LINE      CODE     ---       #96
      01001BC7H   LINE      CODE     ---       #97
      01001BC7H   LINE      CODE     ---       #99
      01001BCDH   LINE      CODE     ---       #100
      01001BD8H   LINE      CODE     ---       #101
      01001BD8H   LINE      CODE     ---       #102
      01001BE4H   LINE      CODE     ---       #103
      01001BEFH   LINE      CODE     ---       #104
      01001BF6H   LINE      CODE     ---       #105
      01001BF6H   LINE      CODE     ---       #106
      01001BF6H   LINE      CODE     ---       #108
      01001C0CH   LINE      CODE     ---       #109
      01001C0CH   LINE      CODE     ---       #111
      01001C13H   LINE      CODE     ---       #112
      01001C13H   LINE      CODE     ---       #113
      01001C17H   LINE      CODE     ---       #114
      01001C19H   LINE      CODE     ---       #115
      01001C19H   LINE      CODE     ---       #116
      01001C20H   LINE      CODE     ---       #117
      01001C2AH   LINE      CODE     ---       #118
      01001C2AH   LINE      CODE     ---       #119
      01001C2CH   LINE      CODE     ---       #120
      01001C2CH   LINE      CODE     ---       #149
LX51 LINKER/LOCATER V4.66.30.0                                                        04/09/2024  13:54:58  PAGE 79


      ---         BLOCKEND  ---      ---       LVL=0

      01002ECFH   BLOCK     CODE     ---       LVL=0
      01002ECFH   LINE      CODE     ---       #152
      01002ECFH   LINE      CODE     ---       #153
      01002ECFH   LINE      CODE     ---       #155
      01002ECFH   LINE      CODE     ---       #156
      01002EECH   LINE      CODE     ---       #157
      01002EFAH   LINE      CODE     ---       #158
      01002EFAH   LINE      CODE     ---       #167
      ---         BLOCKEND  ---      ---       LVL=0

      010030A9H   BLOCK     CODE     ---       LVL=0
      00000006H   SYMBOL    DATA     WORD      value
      010030A9H   LINE      CODE     ---       #175
      010030A9H   LINE      CODE     ---       #176
      010030A9H   LINE      CODE     ---       #177
      010030B1H   LINE      CODE     ---       #178
      ---         BLOCKEND  ---      ---       LVL=0

      01002EFBH   BLOCK     CODE     ---       LVL=0
      01002EFBH   LINE      CODE     ---       #181
      01002EFBH   LINE      CODE     ---       #182
      01002EFBH   LINE      CODE     ---       #183
      01002F08H   LINE      CODE     ---       #184
      01002F08H   LINE      CODE     ---       #185
      01002F14H   LINE      CODE     ---       #186
      01002F20H   LINE      CODE     ---       #187
      01002F25H   LINE      CODE     ---       #188
      01002F25H   LINE      CODE     ---       #189
      ---         BLOCKEND  ---      ---       LVL=0

      ---         MODULE    ---      ---       ADC
      0100295BH   PUBLIC    CODE     ---       ADC_Init
      000000E8H.3 SFRSYM    DATA     BIT       GP43
      000000B0H.4 SFRSYM    DATA     BIT       GP34
      000000A0H.5 SFRSYM    DATA     BIT       GP25
      00000090H.6 SFRSYM    DATA     BIT       GP16
      00000080H.7 SFRSYM    DATA     BIT       GP07
      00000088H.1 SFRSYM    DATA     BIT       IT01
      00000088H.3 SFRSYM    DATA     BIT       IT10
      000000E8H.4 SFRSYM    DATA     BIT       GP44
      000000B0H.5 SFRSYM    DATA     BIT       GP35
      000000A0H.6 SFRSYM    DATA     BIT       GP26
      00000090H.7 SFRSYM    DATA     BIT       GP17
      00000080H   SFRSYM    DATA     BYTE      P0
      00000088H.4 SFRSYM    DATA     BIT       IT11
      000000C9H   SFRSYM    DATA     BYTE      RST_SR
      000000D9H   SFRSYM    DATA     BYTE      EVT_FILT
      000000E8H.5 SFRSYM    DATA     BIT       GP45
      000000B0H.6 SFRSYM    DATA     BIT       GP36
      000000A0H.7 SFRSYM    DATA     BIT       GP27
      00000090H   SFRSYM    DATA     BYTE      P1
      000000B0H.7 SFRSYM    DATA     BIT       GP37
      000000A0H   SFRSYM    DATA     BYTE      P2
      000000B0H   SFRSYM    DATA     BYTE      P3
      000000E8H   SFRSYM    DATA     BYTE      P4
      000000D0H.6 SFRSYM    DATA     BIT       AC
      000000A8H.7 SFRSYM    DATA     BIT       EA
      000000D5H   SFRSYM    DATA     BYTE      CMP_CR0
      000000D6H   SFRSYM    DATA     BYTE      CMP_CR1
      000000C6H   SFRSYM    DATA     WORD      MDU_A
      000000DAH   SFRSYM    DATA     BYTE      CMP_CR2
      000000C4H   SFRSYM    DATA     WORD      MDU_B
      000000B8H.2 SFRSYM    DATA     BIT       PX00
LX51 LINKER/LOCATER V4.66.30.0                                                        04/09/2024  13:54:58  PAGE 80


      000000DCH   SFRSYM    DATA     BYTE      CMP_CR3
      000000F8H   SFRSYM    DATA     BIT       OISUH
      000000C2H   SFRSYM    DATA     WORD      MDU_C
      000000B8H.3 SFRSYM    DATA     BIT       PX01
      000000B8H.4 SFRSYM    DATA     BIT       PX10
      000000E1H   SFRSYM    DATA     BYTE      CMP_CR4
      000000F8H.2 SFRSYM    DATA     BIT       OISVH
      000000CBH   SFRSYM    DATA     BYTE      MDU_D
      000000B8H.5 SFRSYM    DATA     BIT       PX11
      000000F8H.4 SFRSYM    DATA     BIT       OISWH
      000000F8H.1 SFRSYM    DATA     BIT       OISUL
      000000A8H   SFRSYM    DATA     BYTE      IE
      000000F8H.3 SFRSYM    DATA     BIT       OISVL
      000000F9H   SFRSYM    DATA     BYTE      PI_CR
      000000F8H.5 SFRSYM    DATA     BIT       OISWL
      000000D8H   SFRSYM    DATA     BIT       PCMP30
      000000AAH   SFRSYM    DATA     WORD      TIM2__CNTR
      000000D8H.1 SFRSYM    DATA     BIT       PCMP31
      000000A2H   SFRSYM    DATA     WORD      TIM3__CNTR
      00000092H   SFRSYM    DATA     WORD      TIM4__CNTR
      00000098H   SFRSYM    DATA     BIT       RI
      00000098H.6 SFRSYM    DATA     BIT       UT_MOD0
      00000098H.7 SFRSYM    DATA     BIT       UT_MOD1
      000000D0H.7 SFRSYM    DATA     BIT       CY
      00000098H.1 SFRSYM    DATA     BIT       TI
      000000C0H.2 SFRSYM    DATA     BIT       PTIM10
      00000084H   SFRSYM    DATA     BYTE      FLA_KEY
      000000C0H   SFRSYM    DATA     BIT       PTIM20
      000000C0H.3 SFRSYM    DATA     BIT       PTIM11
      00000098H   SFRSYM    DATA     BYTE      UT_CR
      000000C8H.2 SFRSYM    DATA     BIT       PTIM30
      000000C0H.1 SFRSYM    DATA     BIT       PTIM21
      00000099H   SFRSYM    DATA     BYTE      UT_DR
      000000C8H.3 SFRSYM    DATA     BIT       PTIM31
      000000C8H.6 SFRSYM    DATA     BIT       PTIM40
      000000C8H.7 SFRSYM    DATA     BIT       PTIM41
      000000D0H.2 SFRSYM    DATA     BIT       OV
      0000009AH   SFRSYM    DATA     WORD      UT_BAUD
      000000D8H.4 SFRSYM    DATA     BIT       PSPI_UT20
      000000D8H.5 SFRSYM    DATA     BIT       PSPI_UT21
      000000C8H.4 SFRSYM    DATA     BIT       PSYSTICK0
      000000C8H.5 SFRSYM    DATA     BIT       PSYSTICK1
      00000087H   SFRSYM    DATA     BYTE      PCON
      00000088H   SFRSYM    DATA     BYTE      TCON
      00000082H   SFRSYM    DATA     WORD      DPTR
      00000088H.2 SFRSYM    DATA     BIT       IF0
      000000AEH   SFRSYM    DATA     WORD      TIM2__ARR
      000000A1H   SFRSYM    DATA     BYTE      TIM2_CR0
      000000A6H   SFRSYM    DATA     WORD      TIM3__ARR
      0000009CH   SFRSYM    DATA     BYTE      TIM3_CR0
      000000A9H   SFRSYM    DATA     BYTE      TIM2_CR1
      00000096H   SFRSYM    DATA     WORD      TIM4__ARR
      0000009EH   SFRSYM    DATA     BYTE      TIM4_CR0
      0000009DH   SFRSYM    DATA     BYTE      TIM3_CR1
      000000F8H   SFRSYM    DATA     BYTE      DRV_OUT
      0000009FH   SFRSYM    DATA     BYTE      TIM4_CR1
      000000E0H   SFRSYM    DATA     BYTE      ACC
      000000DBH   SFRSYM    DATA     BYTE      LVSR
      000000A8H.4 SFRSYM    DATA     BIT       ES0
      00000085H   SFRSYM    DATA     BYTE      FLA_CR
      000000C0H.4 SFRSYM    DATA     BIT       PADC0
      000000B8H   SFRSYM    DATA     BYTE      IP0
      000000C0H.5 SFRSYM    DATA     BIT       PADC1
      000000C0H   SFRSYM    DATA     BYTE      IP1
      000000C8H   SFRSYM    DATA     BYTE      IP2
LX51 LINKER/LOCATER V4.66.30.0                                                        04/09/2024  13:54:58  PAGE 81


      00000098H.2 SFRSYM    DATA     BIT       RB8
      000000D8H   SFRSYM    DATA     BYTE      IP3
      000000A8H   SFRSYM    DATA     BIT       EX0
      00000098H.3 SFRSYM    DATA     BIT       TB8
      000000A8H.2 SFRSYM    DATA     BIT       EX1
      000000D0H   SFRSYM    DATA     BIT       P
      0000008AH   SFRSYM    DATA     BYTE      UT2_CR
      00000089H   SFRSYM    DATA     BYTE      UT2_DR
      00000098H.5 SFRSYM    DATA     BIT       SM2
      000000D8H.6 SFRSYM    DATA     BIT       PDMA0
      000000D8H.7 SFRSYM    DATA     BIT       PDMA1
      000000D0H.3 SFRSYM    DATA     BIT       RS0
      000000D0H.4 SFRSYM    DATA     BIT       RS1
      000000CAH   SFRSYM    DATA     BYTE      MDU_MD
      000000C1H   SFRSYM    DATA     BYTE      MDU_CR
      000000F8H.7 SFRSYM    DATA     BIT       MOE
      000000C0H.6 SFRSYM    DATA     BIT       PCMP0
      000000C0H.7 SFRSYM    DATA     BIT       PCMP1
      00000098H.4 SFRSYM    DATA     BIT       REN
      000000D7H   SFRSYM    DATA     BYTE      CMP_SR
      000000C8H   SFRSYM    DATA     BIT       PRTC0
      000000C8H.1 SFRSYM    DATA     BIT       PRTC1
      000000B8H.6 SFRSYM    DATA     BIT       PDRV0
      000000B8H.7 SFRSYM    DATA     BIT       PDRV1
      000000D1H   SFRSYM    DATA     BYTE      P1_IE
      000000D3H   SFRSYM    DATA     BYTE      P2_IE
      000000D2H   SFRSYM    DATA     BYTE      P1_IF
      000000D4H   SFRSYM    DATA     BYTE      P2_IF
      000000ACH   SFRSYM    DATA     WORD      TIM2__DR
      000000FCH   SFRSYM    DATA     BYTE      P0_OE
      000000A4H   SFRSYM    DATA     WORD      TIM3__DR
      000000FDH   SFRSYM    DATA     BYTE      P1_OE
      00000094H   SFRSYM    DATA     WORD      TIM4__DR
      000000D0H.5 SFRSYM    DATA     BIT       F0
      000000FEH   SFRSYM    DATA     BYTE      P2_OE
      000000D0H.1 SFRSYM    DATA     BIT       F1
      000000FFH   SFRSYM    DATA     BYTE      P3_OE
      00000080H   SFRSYM    DATA     BIT       GP00
      000000E9H   SFRSYM    DATA     BYTE      P4_OE
      00000090H   SFRSYM    DATA     BIT       GP10
      00000080H.1 SFRSYM    DATA     BIT       GP01
      000000A8H.6 SFRSYM    DATA     BIT       RTCIE
      000000A0H   SFRSYM    DATA     BIT       GP20
      00000090H.1 SFRSYM    DATA     BIT       GP11
      00000080H.2 SFRSYM    DATA     BIT       GP02
      000000B0H   SFRSYM    DATA     BIT       GP30
      000000A0H.1 SFRSYM    DATA     BIT       GP21
      00000090H.2 SFRSYM    DATA     BIT       GP12
      00000080H.3 SFRSYM    DATA     BIT       GP03
      000000D8H.2 SFRSYM    DATA     BIT       PI2C_UT10
      000000B8H   SFRSYM    DATA     BIT       PLVW0
      000000A8H.1 SFRSYM    DATA     BIT       TSDIE
      000000D0H   SFRSYM    DATA     BYTE      PSW
      000000B0H.1 SFRSYM    DATA     BIT       GP31
      000000A0H.2 SFRSYM    DATA     BIT       GP22
      00000090H.3 SFRSYM    DATA     BIT       GP13
      00000080H.4 SFRSYM    DATA     BIT       GP04
      000000D8H.3 SFRSYM    DATA     BIT       PI2C_UT11
      000000B8H.1 SFRSYM    DATA     BIT       PLVW1
      000000A8H.3 SFRSYM    DATA     BIT       SPIIE
      00000088H.5 SFRSYM    DATA     BIT       TSDIF
      000000B0H.2 SFRSYM    DATA     BIT       GP32
      000000A0H.3 SFRSYM    DATA     BIT       GP23
      00000090H.4 SFRSYM    DATA     BIT       GP14
      00000080H.5 SFRSYM    DATA     BIT       GP05
LX51 LINKER/LOCATER V4.66.30.0                                                        04/09/2024  13:54:58  PAGE 82


      000000E8H.2 SFRSYM    DATA     BIT       GP42
      000000B0H.3 SFRSYM    DATA     BIT       GP33
      000000A0H.4 SFRSYM    DATA     BIT       GP24
      00000090H.5 SFRSYM    DATA     BIT       GP15
      00000080H.6 SFRSYM    DATA     BIT       GP06
      00000088H   SFRSYM    DATA     BIT       IT00

      0100295BH   BLOCK     CODE     ---       LVL=0
      0100295BH   LINE      CODE     ---       #13
      0100295BH   LINE      CODE     ---       #14
      0100295BH   LINE      CODE     ---       #16
      01002962H   LINE      CODE     ---       #17
      01002966H   LINE      CODE     ---       #18
      0100296AH   LINE      CODE     ---       #19
      0100296EH   LINE      CODE     ---       #20
      01002975H   LINE      CODE     ---       #23
      01002975H   LINE      CODE     ---       #24
      0100297CH   LINE      CODE     ---       #25
      01002992H   LINE      CODE     ---       #26
      01002992H   LINE      CODE     ---       #38
      010029AAH   LINE      CODE     ---       #50
      010029AAH   LINE      CODE     ---       #51
      010029B1H   LINE      CODE     ---       #52
      010029B1H   LINE      CODE     ---       #56
      010029B8H   LINE      CODE     ---       #57
      010029BCH   LINE      CODE     ---       #58
      010029C0H   LINE      CODE     ---       #59
      ---         BLOCKEND  ---      ---       LVL=0

      ---         MODULE    ---      ---       AMP
      01002F4FH   PUBLIC    CODE     ---       AMP_Init
      000000E8H.3 SFRSYM    DATA     BIT       GP43
      000000B0H.4 SFRSYM    DATA     BIT       GP34
      000000A0H.5 SFRSYM    DATA     BIT       GP25
      00000090H.6 SFRSYM    DATA     BIT       GP16
      00000080H.7 SFRSYM    DATA     BIT       GP07
      00000088H.1 SFRSYM    DATA     BIT       IT01
      00000088H.3 SFRSYM    DATA     BIT       IT10
      000000E8H.4 SFRSYM    DATA     BIT       GP44
      000000B0H.5 SFRSYM    DATA     BIT       GP35
      000000A0H.6 SFRSYM    DATA     BIT       GP26
      00000090H.7 SFRSYM    DATA     BIT       GP17
      00000080H   SFRSYM    DATA     BYTE      P0
      00000088H.4 SFRSYM    DATA     BIT       IT11
      000000C9H   SFRSYM    DATA     BYTE      RST_SR
      000000D9H   SFRSYM    DATA     BYTE      EVT_FILT
      000000E8H.5 SFRSYM    DATA     BIT       GP45
      000000B0H.6 SFRSYM    DATA     BIT       GP36
      000000A0H.7 SFRSYM    DATA     BIT       GP27
      00000090H   SFRSYM    DATA     BYTE      P1
      000000B0H.7 SFRSYM    DATA     BIT       GP37
      000000A0H   SFRSYM    DATA     BYTE      P2
      000000B0H   SFRSYM    DATA     BYTE      P3
      000000E8H   SFRSYM    DATA     BYTE      P4
      000000D0H.6 SFRSYM    DATA     BIT       AC
      000000A8H.7 SFRSYM    DATA     BIT       EA
      000000D5H   SFRSYM    DATA     BYTE      CMP_CR0
      000000D6H   SFRSYM    DATA     BYTE      CMP_CR1
      000000C6H   SFRSYM    DATA     WORD      MDU_A
      000000DAH   SFRSYM    DATA     BYTE      CMP_CR2
      000000C4H   SFRSYM    DATA     WORD      MDU_B
      000000B8H.2 SFRSYM    DATA     BIT       PX00
      000000DCH   SFRSYM    DATA     BYTE      CMP_CR3
      000000F8H   SFRSYM    DATA     BIT       OISUH
      000000C2H   SFRSYM    DATA     WORD      MDU_C
LX51 LINKER/LOCATER V4.66.30.0                                                        04/09/2024  13:54:58  PAGE 83


      000000B8H.3 SFRSYM    DATA     BIT       PX01
      000000B8H.4 SFRSYM    DATA     BIT       PX10
      000000E1H   SFRSYM    DATA     BYTE      CMP_CR4
      000000F8H.2 SFRSYM    DATA     BIT       OISVH
      000000CBH   SFRSYM    DATA     BYTE      MDU_D
      000000B8H.5 SFRSYM    DATA     BIT       PX11
      000000F8H.4 SFRSYM    DATA     BIT       OISWH
      000000F8H.1 SFRSYM    DATA     BIT       OISUL
      000000A8H   SFRSYM    DATA     BYTE      IE
      000000F8H.3 SFRSYM    DATA     BIT       OISVL
      000000F9H   SFRSYM    DATA     BYTE      PI_CR
      000000F8H.5 SFRSYM    DATA     BIT       OISWL
      000000D8H   SFRSYM    DATA     BIT       PCMP30
      000000AAH   SFRSYM    DATA     WORD      TIM2__CNTR
      000000D8H.1 SFRSYM    DATA     BIT       PCMP31
      000000A2H   SFRSYM    DATA     WORD      TIM3__CNTR
      00000092H   SFRSYM    DATA     WORD      TIM4__CNTR
      00000098H   SFRSYM    DATA     BIT       RI
      00000098H.6 SFRSYM    DATA     BIT       UT_MOD0
      00000098H.7 SFRSYM    DATA     BIT       UT_MOD1
      000000D0H.7 SFRSYM    DATA     BIT       CY
      00000098H.1 SFRSYM    DATA     BIT       TI
      000000C0H.2 SFRSYM    DATA     BIT       PTIM10
      00000084H   SFRSYM    DATA     BYTE      FLA_KEY
      000000C0H   SFRSYM    DATA     BIT       PTIM20
      000000C0H.3 SFRSYM    DATA     BIT       PTIM11
      00000098H   SFRSYM    DATA     BYTE      UT_CR
      000000C8H.2 SFRSYM    DATA     BIT       PTIM30
      000000C0H.1 SFRSYM    DATA     BIT       PTIM21
      00000099H   SFRSYM    DATA     BYTE      UT_DR
      000000C8H.3 SFRSYM    DATA     BIT       PTIM31
      000000C8H.6 SFRSYM    DATA     BIT       PTIM40
      000000C8H.7 SFRSYM    DATA     BIT       PTIM41
      000000D0H.2 SFRSYM    DATA     BIT       OV
      0000009AH   SFRSYM    DATA     WORD      UT_BAUD
      000000D8H.4 SFRSYM    DATA     BIT       PSPI_UT20
      000000D8H.5 SFRSYM    DATA     BIT       PSPI_UT21
      000000C8H.4 SFRSYM    DATA     BIT       PSYSTICK0
      000000C8H.5 SFRSYM    DATA     BIT       PSYSTICK1
      00000087H   SFRSYM    DATA     BYTE      PCON
      00000088H   SFRSYM    DATA     BYTE      TCON
      00000082H   SFRSYM    DATA     WORD      DPTR
      00000088H.2 SFRSYM    DATA     BIT       IF0
      000000AEH   SFRSYM    DATA     WORD      TIM2__ARR
      000000A1H   SFRSYM    DATA     BYTE      TIM2_CR0
      000000A6H   SFRSYM    DATA     WORD      TIM3__ARR
      0000009CH   SFRSYM    DATA     BYTE      TIM3_CR0
      000000A9H   SFRSYM    DATA     BYTE      TIM2_CR1
      00000096H   SFRSYM    DATA     WORD      TIM4__ARR
      0000009EH   SFRSYM    DATA     BYTE      TIM4_CR0
      0000009DH   SFRSYM    DATA     BYTE      TIM3_CR1
      000000F8H   SFRSYM    DATA     BYTE      DRV_OUT
      0000009FH   SFRSYM    DATA     BYTE      TIM4_CR1
      000000E0H   SFRSYM    DATA     BYTE      ACC
      000000DBH   SFRSYM    DATA     BYTE      LVSR
      000000A8H.4 SFRSYM    DATA     BIT       ES0
      00000085H   SFRSYM    DATA     BYTE      FLA_CR
      000000C0H.4 SFRSYM    DATA     BIT       PADC0
      000000B8H   SFRSYM    DATA     BYTE      IP0
      000000C0H.5 SFRSYM    DATA     BIT       PADC1
      000000C0H   SFRSYM    DATA     BYTE      IP1
      000000C8H   SFRSYM    DATA     BYTE      IP2
      00000098H.2 SFRSYM    DATA     BIT       RB8
      000000D8H   SFRSYM    DATA     BYTE      IP3
      000000A8H   SFRSYM    DATA     BIT       EX0
LX51 LINKER/LOCATER V4.66.30.0                                                        04/09/2024  13:54:58  PAGE 84


      00000098H.3 SFRSYM    DATA     BIT       TB8
      000000A8H.2 SFRSYM    DATA     BIT       EX1
      000000D0H   SFRSYM    DATA     BIT       P
      0000008AH   SFRSYM    DATA     BYTE      UT2_CR
      00000089H   SFRSYM    DATA     BYTE      UT2_DR
      00000098H.5 SFRSYM    DATA     BIT       SM2
      000000D8H.6 SFRSYM    DATA     BIT       PDMA0
      000000D8H.7 SFRSYM    DATA     BIT       PDMA1
      000000D0H.3 SFRSYM    DATA     BIT       RS0
      000000D0H.4 SFRSYM    DATA     BIT       RS1
      000000CAH   SFRSYM    DATA     BYTE      MDU_MD
      000000C1H   SFRSYM    DATA     BYTE      MDU_CR
      000000F8H.7 SFRSYM    DATA     BIT       MOE
      000000C0H.6 SFRSYM    DATA     BIT       PCMP0
      000000C0H.7 SFRSYM    DATA     BIT       PCMP1
      00000098H.4 SFRSYM    DATA     BIT       REN
      000000D7H   SFRSYM    DATA     BYTE      CMP_SR
      000000C8H   SFRSYM    DATA     BIT       PRTC0
      000000C8H.1 SFRSYM    DATA     BIT       PRTC1
      000000B8H.6 SFRSYM    DATA     BIT       PDRV0
      000000B8H.7 SFRSYM    DATA     BIT       PDRV1
      000000D1H   SFRSYM    DATA     BYTE      P1_IE
      000000D3H   SFRSYM    DATA     BYTE      P2_IE
      000000D2H   SFRSYM    DATA     BYTE      P1_IF
      000000D4H   SFRSYM    DATA     BYTE      P2_IF
      000000ACH   SFRSYM    DATA     WORD      TIM2__DR
      000000FCH   SFRSYM    DATA     BYTE      P0_OE
      000000A4H   SFRSYM    DATA     WORD      TIM3__DR
      000000FDH   SFRSYM    DATA     BYTE      P1_OE
      00000094H   SFRSYM    DATA     WORD      TIM4__DR
      000000D0H.5 SFRSYM    DATA     BIT       F0
      000000FEH   SFRSYM    DATA     BYTE      P2_OE
      000000D0H.1 SFRSYM    DATA     BIT       F1
      000000FFH   SFRSYM    DATA     BYTE      P3_OE
      00000080H   SFRSYM    DATA     BIT       GP00
      000000E9H   SFRSYM    DATA     BYTE      P4_OE
      00000090H   SFRSYM    DATA     BIT       GP10
      00000080H.1 SFRSYM    DATA     BIT       GP01
      000000A8H.6 SFRSYM    DATA     BIT       RTCIE
      000000A0H   SFRSYM    DATA     BIT       GP20
      00000090H.1 SFRSYM    DATA     BIT       GP11
      00000080H.2 SFRSYM    DATA     BIT       GP02
      000000B0H   SFRSYM    DATA     BIT       GP30
      000000A0H.1 SFRSYM    DATA     BIT       GP21
      00000090H.2 SFRSYM    DATA     BIT       GP12
      00000080H.3 SFRSYM    DATA     BIT       GP03
      000000D8H.2 SFRSYM    DATA     BIT       PI2C_UT10
      000000B8H   SFRSYM    DATA     BIT       PLVW0
      000000A8H.1 SFRSYM    DATA     BIT       TSDIE
      000000D0H   SFRSYM    DATA     BYTE      PSW
      000000B0H.1 SFRSYM    DATA     BIT       GP31
      000000A0H.2 SFRSYM    DATA     BIT       GP22
      00000090H.3 SFRSYM    DATA     BIT       GP13
      00000080H.4 SFRSYM    DATA     BIT       GP04
      000000D8H.3 SFRSYM    DATA     BIT       PI2C_UT11
      000000B8H.1 SFRSYM    DATA     BIT       PLVW1
      000000A8H.3 SFRSYM    DATA     BIT       SPIIE
      00000088H.5 SFRSYM    DATA     BIT       TSDIF
      000000B0H.2 SFRSYM    DATA     BIT       GP32
      000000A0H.3 SFRSYM    DATA     BIT       GP23
      00000090H.4 SFRSYM    DATA     BIT       GP14
      00000080H.5 SFRSYM    DATA     BIT       GP05
      000000E8H.2 SFRSYM    DATA     BIT       GP42
      000000B0H.3 SFRSYM    DATA     BIT       GP33
      000000A0H.4 SFRSYM    DATA     BIT       GP24
LX51 LINKER/LOCATER V4.66.30.0                                                        04/09/2024  13:54:58  PAGE 85


      00000090H.5 SFRSYM    DATA     BIT       GP15
      00000080H.6 SFRSYM    DATA     BIT       GP06
      00000088H   SFRSYM    DATA     BIT       IT00

      01002F4FH   BLOCK     CODE     ---       LVL=0
      01002F4FH   LINE      CODE     ---       #13
      01002F4FH   LINE      CODE     ---       #14
      01002F4FH   LINE      CODE     ---       #16
      01002F4FH   LINE      CODE     ---       #18
      01002F56H   LINE      CODE     ---       #19
      01002F5AH   LINE      CODE     ---       #20
      01002F61H   LINE      CODE     ---       #37
      01002F68H   LINE      CODE     ---       #38
      01002F6CH   LINE      CODE     ---       #39
      01002F70H   LINE      CODE     ---       #52
      01002F77H   LINE      CODE     ---       #53
      01002F77H   LINE      CODE     ---       #101
      ---         BLOCKEND  ---      ---       LVL=0

      ---         MODULE    ---      ---       CMP
      02000223H   PUBLIC    XDATA    WORD      Temp_DAC0
      0100309BH   PUBLIC    CODE     ---       CMP3_Interrupt_Init
      01002A86H   PUBLIC    CODE     ---       CMP3_Init
      000000E8H.3 SFRSYM    DATA     BIT       GP43
      000000B0H.4 SFRSYM    DATA     BIT       GP34
      000000A0H.5 SFRSYM    DATA     BIT       GP25
      00000090H.6 SFRSYM    DATA     BIT       GP16
      00000080H.7 SFRSYM    DATA     BIT       GP07
      00000088H.1 SFRSYM    DATA     BIT       IT01
      00000088H.3 SFRSYM    DATA     BIT       IT10
      000000E8H.4 SFRSYM    DATA     BIT       GP44
      000000B0H.5 SFRSYM    DATA     BIT       GP35
      000000A0H.6 SFRSYM    DATA     BIT       GP26
      00000090H.7 SFRSYM    DATA     BIT       GP17
      00000080H   SFRSYM    DATA     BYTE      P0
      00000088H.4 SFRSYM    DATA     BIT       IT11
      000000C9H   SFRSYM    DATA     BYTE      RST_SR
      000000D9H   SFRSYM    DATA     BYTE      EVT_FILT
      000000E8H.5 SFRSYM    DATA     BIT       GP45
      000000B0H.6 SFRSYM    DATA     BIT       GP36
      000000A0H.7 SFRSYM    DATA     BIT       GP27
      00000090H   SFRSYM    DATA     BYTE      P1
      000000B0H.7 SFRSYM    DATA     BIT       GP37
      000000A0H   SFRSYM    DATA     BYTE      P2
      000000B0H   SFRSYM    DATA     BYTE      P3
      000000E8H   SFRSYM    DATA     BYTE      P4
      000000D0H.6 SFRSYM    DATA     BIT       AC
      000000A8H.7 SFRSYM    DATA     BIT       EA
      000000D5H   SFRSYM    DATA     BYTE      CMP_CR0
      000000D6H   SFRSYM    DATA     BYTE      CMP_CR1
      000000C6H   SFRSYM    DATA     WORD      MDU_A
      000000DAH   SFRSYM    DATA     BYTE      CMP_CR2
      000000C4H   SFRSYM    DATA     WORD      MDU_B
      000000B8H.2 SFRSYM    DATA     BIT       PX00
      000000DCH   SFRSYM    DATA     BYTE      CMP_CR3
      000000F8H   SFRSYM    DATA     BIT       OISUH
      000000C2H   SFRSYM    DATA     WORD      MDU_C
      000000B8H.3 SFRSYM    DATA     BIT       PX01
      000000B8H.4 SFRSYM    DATA     BIT       PX10
      000000E1H   SFRSYM    DATA     BYTE      CMP_CR4
      000000F8H.2 SFRSYM    DATA     BIT       OISVH
      000000CBH   SFRSYM    DATA     BYTE      MDU_D
      000000B8H.5 SFRSYM    DATA     BIT       PX11
      000000F8H.4 SFRSYM    DATA     BIT       OISWH
      000000F8H.1 SFRSYM    DATA     BIT       OISUL
LX51 LINKER/LOCATER V4.66.30.0                                                        04/09/2024  13:54:58  PAGE 86


      000000A8H   SFRSYM    DATA     BYTE      IE
      000000F8H.3 SFRSYM    DATA     BIT       OISVL
      000000F9H   SFRSYM    DATA     BYTE      PI_CR
      000000F8H.5 SFRSYM    DATA     BIT       OISWL
      000000D8H   SFRSYM    DATA     BIT       PCMP30
      000000AAH   SFRSYM    DATA     WORD      TIM2__CNTR
      000000D8H.1 SFRSYM    DATA     BIT       PCMP31
      000000A2H   SFRSYM    DATA     WORD      TIM3__CNTR
      00000092H   SFRSYM    DATA     WORD      TIM4__CNTR
      00000098H   SFRSYM    DATA     BIT       RI
      00000098H.6 SFRSYM    DATA     BIT       UT_MOD0
      00000098H.7 SFRSYM    DATA     BIT       UT_MOD1
      000000D0H.7 SFRSYM    DATA     BIT       CY
      00000098H.1 SFRSYM    DATA     BIT       TI
      000000C0H.2 SFRSYM    DATA     BIT       PTIM10
      00000084H   SFRSYM    DATA     BYTE      FLA_KEY
      000000C0H   SFRSYM    DATA     BIT       PTIM20
      000000C0H.3 SFRSYM    DATA     BIT       PTIM11
      00000098H   SFRSYM    DATA     BYTE      UT_CR
      000000C8H.2 SFRSYM    DATA     BIT       PTIM30
      000000C0H.1 SFRSYM    DATA     BIT       PTIM21
      00000099H   SFRSYM    DATA     BYTE      UT_DR
      000000C8H.3 SFRSYM    DATA     BIT       PTIM31
      000000C8H.6 SFRSYM    DATA     BIT       PTIM40
      000000C8H.7 SFRSYM    DATA     BIT       PTIM41
      000000D0H.2 SFRSYM    DATA     BIT       OV
      0000009AH   SFRSYM    DATA     WORD      UT_BAUD
      000000D8H.4 SFRSYM    DATA     BIT       PSPI_UT20
      000000D8H.5 SFRSYM    DATA     BIT       PSPI_UT21
      000000C8H.4 SFRSYM    DATA     BIT       PSYSTICK0
      000000C8H.5 SFRSYM    DATA     BIT       PSYSTICK1
      00000087H   SFRSYM    DATA     BYTE      PCON
      00000088H   SFRSYM    DATA     BYTE      TCON
      00000082H   SFRSYM    DATA     WORD      DPTR
      00000088H.2 SFRSYM    DATA     BIT       IF0
      000000AEH   SFRSYM    DATA     WORD      TIM2__ARR
      000000A1H   SFRSYM    DATA     BYTE      TIM2_CR0
      000000A6H   SFRSYM    DATA     WORD      TIM3__ARR
      0000009CH   SFRSYM    DATA     BYTE      TIM3_CR0
      000000A9H   SFRSYM    DATA     BYTE      TIM2_CR1
      00000096H   SFRSYM    DATA     WORD      TIM4__ARR
      0000009EH   SFRSYM    DATA     BYTE      TIM4_CR0
      0000009DH   SFRSYM    DATA     BYTE      TIM3_CR1
      000000F8H   SFRSYM    DATA     BYTE      DRV_OUT
      0000009FH   SFRSYM    DATA     BYTE      TIM4_CR1
      000000E0H   SFRSYM    DATA     BYTE      ACC
      000000DBH   SFRSYM    DATA     BYTE      LVSR
      000000A8H.4 SFRSYM    DATA     BIT       ES0
      00000085H   SFRSYM    DATA     BYTE      FLA_CR
      000000C0H.4 SFRSYM    DATA     BIT       PADC0
      000000B8H   SFRSYM    DATA     BYTE      IP0
      000000C0H.5 SFRSYM    DATA     BIT       PADC1
      000000C0H   SFRSYM    DATA     BYTE      IP1
      000000C8H   SFRSYM    DATA     BYTE      IP2
      00000098H.2 SFRSYM    DATA     BIT       RB8
      000000D8H   SFRSYM    DATA     BYTE      IP3
      000000A8H   SFRSYM    DATA     BIT       EX0
      00000098H.3 SFRSYM    DATA     BIT       TB8
      000000A8H.2 SFRSYM    DATA     BIT       EX1
      000000D0H   SFRSYM    DATA     BIT       P
      0000008AH   SFRSYM    DATA     BYTE      UT2_CR
      00000089H   SFRSYM    DATA     BYTE      UT2_DR
      00000098H.5 SFRSYM    DATA     BIT       SM2
      000000D8H.6 SFRSYM    DATA     BIT       PDMA0
      000000D8H.7 SFRSYM    DATA     BIT       PDMA1
LX51 LINKER/LOCATER V4.66.30.0                                                        04/09/2024  13:54:58  PAGE 87


      000000D0H.3 SFRSYM    DATA     BIT       RS0
      000000D0H.4 SFRSYM    DATA     BIT       RS1
      000000CAH   SFRSYM    DATA     BYTE      MDU_MD
      000000C1H   SFRSYM    DATA     BYTE      MDU_CR
      000000F8H.7 SFRSYM    DATA     BIT       MOE
      000000C0H.6 SFRSYM    DATA     BIT       PCMP0
      000000C0H.7 SFRSYM    DATA     BIT       PCMP1
      00000098H.4 SFRSYM    DATA     BIT       REN
      000000D7H   SFRSYM    DATA     BYTE      CMP_SR
      000000C8H   SFRSYM    DATA     BIT       PRTC0
      000000C8H.1 SFRSYM    DATA     BIT       PRTC1
      000000B8H.6 SFRSYM    DATA     BIT       PDRV0
      000000B8H.7 SFRSYM    DATA     BIT       PDRV1
      000000D1H   SFRSYM    DATA     BYTE      P1_IE
      000000D3H   SFRSYM    DATA     BYTE      P2_IE
      000000D2H   SFRSYM    DATA     BYTE      P1_IF
      000000D4H   SFRSYM    DATA     BYTE      P2_IF
      000000ACH   SFRSYM    DATA     WORD      TIM2__DR
      000000FCH   SFRSYM    DATA     BYTE      P0_OE
      000000A4H   SFRSYM    DATA     WORD      TIM3__DR
      000000FDH   SFRSYM    DATA     BYTE      P1_OE
      00000094H   SFRSYM    DATA     WORD      TIM4__DR
      000000D0H.5 SFRSYM    DATA     BIT       F0
      000000FEH   SFRSYM    DATA     BYTE      P2_OE
      000000D0H.1 SFRSYM    DATA     BIT       F1
      000000FFH   SFRSYM    DATA     BYTE      P3_OE
      00000080H   SFRSYM    DATA     BIT       GP00
      000000E9H   SFRSYM    DATA     BYTE      P4_OE
      00000090H   SFRSYM    DATA     BIT       GP10
      00000080H.1 SFRSYM    DATA     BIT       GP01
      000000A8H.6 SFRSYM    DATA     BIT       RTCIE
      000000A0H   SFRSYM    DATA     BIT       GP20
      00000090H.1 SFRSYM    DATA     BIT       GP11
      00000080H.2 SFRSYM    DATA     BIT       GP02
      000000B0H   SFRSYM    DATA     BIT       GP30
      000000A0H.1 SFRSYM    DATA     BIT       GP21
      00000090H.2 SFRSYM    DATA     BIT       GP12
      00000080H.3 SFRSYM    DATA     BIT       GP03
      000000D8H.2 SFRSYM    DATA     BIT       PI2C_UT10
      000000B8H   SFRSYM    DATA     BIT       PLVW0
      000000A8H.1 SFRSYM    DATA     BIT       TSDIE
      000000D0H   SFRSYM    DATA     BYTE      PSW
      000000B0H.1 SFRSYM    DATA     BIT       GP31
      000000A0H.2 SFRSYM    DATA     BIT       GP22
      00000090H.3 SFRSYM    DATA     BIT       GP13
      00000080H.4 SFRSYM    DATA     BIT       GP04
      000000D8H.3 SFRSYM    DATA     BIT       PI2C_UT11
      000000B8H.1 SFRSYM    DATA     BIT       PLVW1
      000000A8H.3 SFRSYM    DATA     BIT       SPIIE
      00000088H.5 SFRSYM    DATA     BIT       TSDIF
      000000B0H.2 SFRSYM    DATA     BIT       GP32
      000000A0H.3 SFRSYM    DATA     BIT       GP23
      00000090H.4 SFRSYM    DATA     BIT       GP14
      00000080H.5 SFRSYM    DATA     BIT       GP05
      000000E8H.2 SFRSYM    DATA     BIT       GP42
      000000B0H.3 SFRSYM    DATA     BIT       GP33
      000000A0H.4 SFRSYM    DATA     BIT       GP24
      00000090H.5 SFRSYM    DATA     BIT       GP15
      00000080H.6 SFRSYM    DATA     BIT       GP06
      00000088H   SFRSYM    DATA     BIT       IT00

      01002A86H   BLOCK     CODE     ---       LVL=0
      01002A86H   BLOCK     CODE     NEAR LAB  LVL=1
      00000006H   SYMBOL    DATA     WORD      DAC_OvercurrentTempValue
      ---         BLOCKEND  ---      ---       LVL=1
LX51 LINKER/LOCATER V4.66.30.0                                                        04/09/2024  13:54:58  PAGE 88


      01002A86H   LINE      CODE     ---       #84
      01002A86H   LINE      CODE     ---       #85
      01002A86H   LINE      CODE     ---       #86
      01002A86H   LINE      CODE     ---       #90
      01002A8DH   LINE      CODE     ---       #91
      01002A90H   LINE      CODE     ---       #92
      01002A93H   LINE      CODE     ---       #93
      01002A93H   LINE      CODE     ---       #115
      01002A93H   LINE      CODE     ---       #117
      01002A97H   LINE      CODE     ---       #118
      01002A9AH   LINE      CODE     ---       #123
      01002AA1H   LINE      CODE     ---       #126
      01002AA3H   LINE      CODE     ---       #127
      01002AAAH   LINE      CODE     ---       #128
      01002AAAH   LINE      CODE     ---       #129
      01002AAEH   LINE      CODE     ---       #130
      01002AB0H   LINE      CODE     ---       #132
      01002AB0H   LINE      CODE     ---       #133
      01002AB4H   LINE      CODE     ---       #134
      01002AB4H   LINE      CODE     ---       #138
      01002ABAH   LINE      CODE     ---       #139
      01002AC4H   LINE      CODE     ---       #142
      01002ACBH   LINE      CODE     ---       #143
      01002ACBH   LINE      CODE     ---       #146
      01002ACEH   LINE      CODE     ---       #151
      01002AD1H   LINE      CODE     ---       #157
      01002AD4H   LINE      CODE     ---       #158
      01002AD7H   LINE      CODE     ---       #166
      01002ADAH   LINE      CODE     ---       #167
      01002ADDH   LINE      CODE     ---       #169
      01002AE0H   LINE      CODE     ---       #170
      ---         BLOCKEND  ---      ---       LVL=0

      0100309BH   BLOCK     CODE     ---       LVL=0
      0100309BH   LINE      CODE     ---       #185
      0100309BH   LINE      CODE     ---       #186
      0100309BH   LINE      CODE     ---       #187
      0100309EH   LINE      CODE     ---       #195
      010030A1H   LINE      CODE     ---       #196
      010030A4H   LINE      CODE     ---       #198
      010030A6H   LINE      CODE     ---       #199
      010030A8H   LINE      CODE     ---       #200
      ---         BLOCKEND  ---      ---       LVL=0

      ---         MODULE    ---      ---       CRC
      000000E8H.3 SFRSYM    DATA     BIT       GP43
      000000B0H.4 SFRSYM    DATA     BIT       GP34
      000000A0H.5 SFRSYM    DATA     BIT       GP25
      00000090H.6 SFRSYM    DATA     BIT       GP16
      00000080H.7 SFRSYM    DATA     BIT       GP07
      00000088H.1 SFRSYM    DATA     BIT       IT01
      00000088H.3 SFRSYM    DATA     BIT       IT10
      000000E8H.4 SFRSYM    DATA     BIT       GP44
      000000B0H.5 SFRSYM    DATA     BIT       GP35
      000000A0H.6 SFRSYM    DATA     BIT       GP26
      00000090H.7 SFRSYM    DATA     BIT       GP17
      00000080H   SFRSYM    DATA     BYTE      P0
      00000088H.4 SFRSYM    DATA     BIT       IT11
      000000C9H   SFRSYM    DATA     BYTE      RST_SR
      000000D9H   SFRSYM    DATA     BYTE      EVT_FILT
      000000E8H.5 SFRSYM    DATA     BIT       GP45
      000000B0H.6 SFRSYM    DATA     BIT       GP36
      000000A0H.7 SFRSYM    DATA     BIT       GP27
      00000090H   SFRSYM    DATA     BYTE      P1
      000000B0H.7 SFRSYM    DATA     BIT       GP37
LX51 LINKER/LOCATER V4.66.30.0                                                        04/09/2024  13:54:58  PAGE 89


      000000A0H   SFRSYM    DATA     BYTE      P2
      000000B0H   SFRSYM    DATA     BYTE      P3
      000000E8H   SFRSYM    DATA     BYTE      P4
      000000D0H.6 SFRSYM    DATA     BIT       AC
      000000A8H.7 SFRSYM    DATA     BIT       EA
      000000D5H   SFRSYM    DATA     BYTE      CMP_CR0
      000000D6H   SFRSYM    DATA     BYTE      CMP_CR1
      000000C6H   SFRSYM    DATA     WORD      MDU_A
      000000DAH   SFRSYM    DATA     BYTE      CMP_CR2
      000000C4H   SFRSYM    DATA     WORD      MDU_B
      000000B8H.2 SFRSYM    DATA     BIT       PX00
      000000DCH   SFRSYM    DATA     BYTE      CMP_CR3
      000000F8H   SFRSYM    DATA     BIT       OISUH
      000000C2H   SFRSYM    DATA     WORD      MDU_C
      000000B8H.3 SFRSYM    DATA     BIT       PX01
      000000B8H.4 SFRSYM    DATA     BIT       PX10
      000000E1H   SFRSYM    DATA     BYTE      CMP_CR4
      000000F8H.2 SFRSYM    DATA     BIT       OISVH
      000000CBH   SFRSYM    DATA     BYTE      MDU_D
      000000B8H.5 SFRSYM    DATA     BIT       PX11
      000000F8H.4 SFRSYM    DATA     BIT       OISWH
      000000F8H.1 SFRSYM    DATA     BIT       OISUL
      000000A8H   SFRSYM    DATA     BYTE      IE
      000000F8H.3 SFRSYM    DATA     BIT       OISVL
      000000F9H   SFRSYM    DATA     BYTE      PI_CR
      000000F8H.5 SFRSYM    DATA     BIT       OISWL
      000000D8H   SFRSYM    DATA     BIT       PCMP30
      000000AAH   SFRSYM    DATA     WORD      TIM2__CNTR
      000000D8H.1 SFRSYM    DATA     BIT       PCMP31
      000000A2H   SFRSYM    DATA     WORD      TIM3__CNTR
      00000092H   SFRSYM    DATA     WORD      TIM4__CNTR
      00000098H   SFRSYM    DATA     BIT       RI
      00000098H.6 SFRSYM    DATA     BIT       UT_MOD0
      00000098H.7 SFRSYM    DATA     BIT       UT_MOD1
      000000D0H.7 SFRSYM    DATA     BIT       CY
      00000098H.1 SFRSYM    DATA     BIT       TI
      000000C0H.2 SFRSYM    DATA     BIT       PTIM10
      00000084H   SFRSYM    DATA     BYTE      FLA_KEY
      000000C0H   SFRSYM    DATA     BIT       PTIM20
      000000C0H.3 SFRSYM    DATA     BIT       PTIM11
      00000098H   SFRSYM    DATA     BYTE      UT_CR
      000000C8H.2 SFRSYM    DATA     BIT       PTIM30
      000000C0H.1 SFRSYM    DATA     BIT       PTIM21
      00000099H   SFRSYM    DATA     BYTE      UT_DR
      000000C8H.3 SFRSYM    DATA     BIT       PTIM31
      000000C8H.6 SFRSYM    DATA     BIT       PTIM40
      000000C8H.7 SFRSYM    DATA     BIT       PTIM41
      000000D0H.2 SFRSYM    DATA     BIT       OV
      0000009AH   SFRSYM    DATA     WORD      UT_BAUD
      000000D8H.4 SFRSYM    DATA     BIT       PSPI_UT20
      000000D8H.5 SFRSYM    DATA     BIT       PSPI_UT21
      000000C8H.4 SFRSYM    DATA     BIT       PSYSTICK0
      000000C8H.5 SFRSYM    DATA     BIT       PSYSTICK1
      00000087H   SFRSYM    DATA     BYTE      PCON
      00000088H   SFRSYM    DATA     BYTE      TCON
      00000082H   SFRSYM    DATA     WORD      DPTR
      00000088H.2 SFRSYM    DATA     BIT       IF0
      000000AEH   SFRSYM    DATA     WORD      TIM2__ARR
      000000A1H   SFRSYM    DATA     BYTE      TIM2_CR0
      000000A6H   SFRSYM    DATA     WORD      TIM3__ARR
      0000009CH   SFRSYM    DATA     BYTE      TIM3_CR0
      000000A9H   SFRSYM    DATA     BYTE      TIM2_CR1
      00000096H   SFRSYM    DATA     WORD      TIM4__ARR
      0000009EH   SFRSYM    DATA     BYTE      TIM4_CR0
      0000009DH   SFRSYM    DATA     BYTE      TIM3_CR1
LX51 LINKER/LOCATER V4.66.30.0                                                        04/09/2024  13:54:58  PAGE 90


      000000F8H   SFRSYM    DATA     BYTE      DRV_OUT
      0000009FH   SFRSYM    DATA     BYTE      TIM4_CR1
      000000E0H   SFRSYM    DATA     BYTE      ACC
      000000DBH   SFRSYM    DATA     BYTE      LVSR
      000000A8H.4 SFRSYM    DATA     BIT       ES0
      00000085H   SFRSYM    DATA     BYTE      FLA_CR
      000000C0H.4 SFRSYM    DATA     BIT       PADC0
      000000B8H   SFRSYM    DATA     BYTE      IP0
      000000C0H.5 SFRSYM    DATA     BIT       PADC1
      000000C0H   SFRSYM    DATA     BYTE      IP1
      000000C8H   SFRSYM    DATA     BYTE      IP2
      00000098H.2 SFRSYM    DATA     BIT       RB8
      000000D8H   SFRSYM    DATA     BYTE      IP3
      000000A8H   SFRSYM    DATA     BIT       EX0
      00000098H.3 SFRSYM    DATA     BIT       TB8
      000000A8H.2 SFRSYM    DATA     BIT       EX1
      000000D0H   SFRSYM    DATA     BIT       P
      0000008AH   SFRSYM    DATA     BYTE      UT2_CR
      00000089H   SFRSYM    DATA     BYTE      UT2_DR
      00000098H.5 SFRSYM    DATA     BIT       SM2
      000000D8H.6 SFRSYM    DATA     BIT       PDMA0
      000000D8H.7 SFRSYM    DATA     BIT       PDMA1
      000000D0H.3 SFRSYM    DATA     BIT       RS0
      000000D0H.4 SFRSYM    DATA     BIT       RS1
      000000CAH   SFRSYM    DATA     BYTE      MDU_MD
      000000C1H   SFRSYM    DATA     BYTE      MDU_CR
      000000F8H.7 SFRSYM    DATA     BIT       MOE
      000000C0H.6 SFRSYM    DATA     BIT       PCMP0
      000000C0H.7 SFRSYM    DATA     BIT       PCMP1
      00000098H.4 SFRSYM    DATA     BIT       REN
      000000D7H   SFRSYM    DATA     BYTE      CMP_SR
      000000C8H   SFRSYM    DATA     BIT       PRTC0
      000000C8H.1 SFRSYM    DATA     BIT       PRTC1
      000000B8H.6 SFRSYM    DATA     BIT       PDRV0
      000000B8H.7 SFRSYM    DATA     BIT       PDRV1
      000000D1H   SFRSYM    DATA     BYTE      P1_IE
      000000D3H   SFRSYM    DATA     BYTE      P2_IE
      000000D2H   SFRSYM    DATA     BYTE      P1_IF
      000000D4H   SFRSYM    DATA     BYTE      P2_IF
      000000ACH   SFRSYM    DATA     WORD      TIM2__DR
      000000FCH   SFRSYM    DATA     BYTE      P0_OE
      000000A4H   SFRSYM    DATA     WORD      TIM3__DR
      000000FDH   SFRSYM    DATA     BYTE      P1_OE
      00000094H   SFRSYM    DATA     WORD      TIM4__DR
      000000D0H.5 SFRSYM    DATA     BIT       F0
      000000FEH   SFRSYM    DATA     BYTE      P2_OE
      000000D0H.1 SFRSYM    DATA     BIT       F1
      000000FFH   SFRSYM    DATA     BYTE      P3_OE
      00000080H   SFRSYM    DATA     BIT       GP00
      000000E9H   SFRSYM    DATA     BYTE      P4_OE
      00000090H   SFRSYM    DATA     BIT       GP10
      00000080H.1 SFRSYM    DATA     BIT       GP01
      000000A8H.6 SFRSYM    DATA     BIT       RTCIE
      000000A0H   SFRSYM    DATA     BIT       GP20
      00000090H.1 SFRSYM    DATA     BIT       GP11
      00000080H.2 SFRSYM    DATA     BIT       GP02
      000000B0H   SFRSYM    DATA     BIT       GP30
      000000A0H.1 SFRSYM    DATA     BIT       GP21
      00000090H.2 SFRSYM    DATA     BIT       GP12
      00000080H.3 SFRSYM    DATA     BIT       GP03
      000000D8H.2 SFRSYM    DATA     BIT       PI2C_UT10
      000000B8H   SFRSYM    DATA     BIT       PLVW0
      000000A8H.1 SFRSYM    DATA     BIT       TSDIE
      000000D0H   SFRSYM    DATA     BYTE      PSW
      000000B0H.1 SFRSYM    DATA     BIT       GP31
LX51 LINKER/LOCATER V4.66.30.0                                                        04/09/2024  13:54:58  PAGE 91


      000000A0H.2 SFRSYM    DATA     BIT       GP22
      00000090H.3 SFRSYM    DATA     BIT       GP13
      00000080H.4 SFRSYM    DATA     BIT       GP04
      000000D8H.3 SFRSYM    DATA     BIT       PI2C_UT11
      000000B8H.1 SFRSYM    DATA     BIT       PLVW1
      000000A8H.3 SFRSYM    DATA     BIT       SPIIE
      00000088H.5 SFRSYM    DATA     BIT       TSDIF
      000000B0H.2 SFRSYM    DATA     BIT       GP32
      000000A0H.3 SFRSYM    DATA     BIT       GP23
      00000090H.4 SFRSYM    DATA     BIT       GP14
      00000080H.5 SFRSYM    DATA     BIT       GP05
      000000E8H.2 SFRSYM    DATA     BIT       GP42
      000000B0H.3 SFRSYM    DATA     BIT       GP33
      000000A0H.4 SFRSYM    DATA     BIT       GP24
      00000090H.5 SFRSYM    DATA     BIT       GP15
      00000080H.6 SFRSYM    DATA     BIT       GP06
      00000088H   SFRSYM    DATA     BIT       IT00
      00000005H   SYMBOL    DATA     BYTE      len
      00000007H   SYMBOL    DATA     BYTE      crc
      00000006H   SYMBOL    DATA     BYTE      cnt

      ---         MODULE    ---      ---       DMA
      000000E8H.3 SFRSYM    DATA     BIT       GP43
      000000B0H.4 SFRSYM    DATA     BIT       GP34
      000000A0H.5 SFRSYM    DATA     BIT       GP25
      00000090H.6 SFRSYM    DATA     BIT       GP16
      00000080H.7 SFRSYM    DATA     BIT       GP07
      00000088H.1 SFRSYM    DATA     BIT       IT01
      00000088H.3 SFRSYM    DATA     BIT       IT10
      000000E8H.4 SFRSYM    DATA     BIT       GP44
      000000B0H.5 SFRSYM    DATA     BIT       GP35
      000000A0H.6 SFRSYM    DATA     BIT       GP26
      00000090H.7 SFRSYM    DATA     BIT       GP17
      00000080H   SFRSYM    DATA     BYTE      P0
      00000088H.4 SFRSYM    DATA     BIT       IT11
      000000C9H   SFRSYM    DATA     BYTE      RST_SR
      000000D9H   SFRSYM    DATA     BYTE      EVT_FILT
      000000E8H.5 SFRSYM    DATA     BIT       GP45
      000000B0H.6 SFRSYM    DATA     BIT       GP36
      000000A0H.7 SFRSYM    DATA     BIT       GP27
      00000090H   SFRSYM    DATA     BYTE      P1
      000000B0H.7 SFRSYM    DATA     BIT       GP37
      000000A0H   SFRSYM    DATA     BYTE      P2
      000000B0H   SFRSYM    DATA     BYTE      P3
      000000E8H   SFRSYM    DATA     BYTE      P4
      000000D0H.6 SFRSYM    DATA     BIT       AC
      000000A8H.7 SFRSYM    DATA     BIT       EA
      000000D5H   SFRSYM    DATA     BYTE      CMP_CR0
      000000D6H   SFRSYM    DATA     BYTE      CMP_CR1
      000000C6H   SFRSYM    DATA     WORD      MDU_A
      000000DAH   SFRSYM    DATA     BYTE      CMP_CR2
      000000C4H   SFRSYM    DATA     WORD      MDU_B
      000000B8H.2 SFRSYM    DATA     BIT       PX00
      000000DCH   SFRSYM    DATA     BYTE      CMP_CR3
      000000F8H   SFRSYM    DATA     BIT       OISUH
      000000C2H   SFRSYM    DATA     WORD      MDU_C
      000000B8H.3 SFRSYM    DATA     BIT       PX01
      000000B8H.4 SFRSYM    DATA     BIT       PX10
      000000E1H   SFRSYM    DATA     BYTE      CMP_CR4
      000000F8H.2 SFRSYM    DATA     BIT       OISVH
      000000CBH   SFRSYM    DATA     BYTE      MDU_D
      000000B8H.5 SFRSYM    DATA     BIT       PX11
      000000F8H.4 SFRSYM    DATA     BIT       OISWH
      000000F8H.1 SFRSYM    DATA     BIT       OISUL
      000000A8H   SFRSYM    DATA     BYTE      IE
LX51 LINKER/LOCATER V4.66.30.0                                                        04/09/2024  13:54:58  PAGE 92


      000000F8H.3 SFRSYM    DATA     BIT       OISVL
      000000F9H   SFRSYM    DATA     BYTE      PI_CR
      000000F8H.5 SFRSYM    DATA     BIT       OISWL
      000000D8H   SFRSYM    DATA     BIT       PCMP30
      000000AAH   SFRSYM    DATA     WORD      TIM2__CNTR
      000000D8H.1 SFRSYM    DATA     BIT       PCMP31
      000000A2H   SFRSYM    DATA     WORD      TIM3__CNTR
      00000092H   SFRSYM    DATA     WORD      TIM4__CNTR
      00000098H   SFRSYM    DATA     BIT       RI
      00000098H.6 SFRSYM    DATA     BIT       UT_MOD0
      00000098H.7 SFRSYM    DATA     BIT       UT_MOD1
      000000D0H.7 SFRSYM    DATA     BIT       CY
      00000098H.1 SFRSYM    DATA     BIT       TI
      000000C0H.2 SFRSYM    DATA     BIT       PTIM10
      00000084H   SFRSYM    DATA     BYTE      FLA_KEY
      000000C0H   SFRSYM    DATA     BIT       PTIM20
      000000C0H.3 SFRSYM    DATA     BIT       PTIM11
      00000098H   SFRSYM    DATA     BYTE      UT_CR
      000000C8H.2 SFRSYM    DATA     BIT       PTIM30
      000000C0H.1 SFRSYM    DATA     BIT       PTIM21
      00000099H   SFRSYM    DATA     BYTE      UT_DR
      000000C8H.3 SFRSYM    DATA     BIT       PTIM31
      000000C8H.6 SFRSYM    DATA     BIT       PTIM40
      000000C8H.7 SFRSYM    DATA     BIT       PTIM41
      000000D0H.2 SFRSYM    DATA     BIT       OV
      0000009AH   SFRSYM    DATA     WORD      UT_BAUD
      000000D8H.4 SFRSYM    DATA     BIT       PSPI_UT20
      000000D8H.5 SFRSYM    DATA     BIT       PSPI_UT21
      000000C8H.4 SFRSYM    DATA     BIT       PSYSTICK0
      000000C8H.5 SFRSYM    DATA     BIT       PSYSTICK1
      00000087H   SFRSYM    DATA     BYTE      PCON
      00000088H   SFRSYM    DATA     BYTE      TCON
      00000082H   SFRSYM    DATA     WORD      DPTR
      00000088H.2 SFRSYM    DATA     BIT       IF0
      000000AEH   SFRSYM    DATA     WORD      TIM2__ARR
      000000A1H   SFRSYM    DATA     BYTE      TIM2_CR0
      000000A6H   SFRSYM    DATA     WORD      TIM3__ARR
      0000009CH   SFRSYM    DATA     BYTE      TIM3_CR0
      000000A9H   SFRSYM    DATA     BYTE      TIM2_CR1
      00000096H   SFRSYM    DATA     WORD      TIM4__ARR
      0000009EH   SFRSYM    DATA     BYTE      TIM4_CR0
      0000009DH   SFRSYM    DATA     BYTE      TIM3_CR1
      000000F8H   SFRSYM    DATA     BYTE      DRV_OUT
      0000009FH   SFRSYM    DATA     BYTE      TIM4_CR1
      000000E0H   SFRSYM    DATA     BYTE      ACC
      000000DBH   SFRSYM    DATA     BYTE      LVSR
      000000A8H.4 SFRSYM    DATA     BIT       ES0
      00000085H   SFRSYM    DATA     BYTE      FLA_CR
      000000C0H.4 SFRSYM    DATA     BIT       PADC0
      000000B8H   SFRSYM    DATA     BYTE      IP0
      000000C0H.5 SFRSYM    DATA     BIT       PADC1
      000000C0H   SFRSYM    DATA     BYTE      IP1
      000000C8H   SFRSYM    DATA     BYTE      IP2
      00000098H.2 SFRSYM    DATA     BIT       RB8
      000000D8H   SFRSYM    DATA     BYTE      IP3
      000000A8H   SFRSYM    DATA     BIT       EX0
      00000098H.3 SFRSYM    DATA     BIT       TB8
      000000A8H.2 SFRSYM    DATA     BIT       EX1
      000000D0H   SFRSYM    DATA     BIT       P
      0000008AH   SFRSYM    DATA     BYTE      UT2_CR
      00000089H   SFRSYM    DATA     BYTE      UT2_DR
      00000098H.5 SFRSYM    DATA     BIT       SM2
      000000D8H.6 SFRSYM    DATA     BIT       PDMA0
      000000D8H.7 SFRSYM    DATA     BIT       PDMA1
      000000D0H.3 SFRSYM    DATA     BIT       RS0
LX51 LINKER/LOCATER V4.66.30.0                                                        04/09/2024  13:54:58  PAGE 93


      000000D0H.4 SFRSYM    DATA     BIT       RS1
      000000CAH   SFRSYM    DATA     BYTE      MDU_MD
      000000C1H   SFRSYM    DATA     BYTE      MDU_CR
      000000F8H.7 SFRSYM    DATA     BIT       MOE
      000000C0H.6 SFRSYM    DATA     BIT       PCMP0
      000000C0H.7 SFRSYM    DATA     BIT       PCMP1
      00000098H.4 SFRSYM    DATA     BIT       REN
      000000D7H   SFRSYM    DATA     BYTE      CMP_SR
      000000C8H   SFRSYM    DATA     BIT       PRTC0
      000000C8H.1 SFRSYM    DATA     BIT       PRTC1
      000000B8H.6 SFRSYM    DATA     BIT       PDRV0
      000000B8H.7 SFRSYM    DATA     BIT       PDRV1
      000000D1H   SFRSYM    DATA     BYTE      P1_IE
      000000D3H   SFRSYM    DATA     BYTE      P2_IE
      000000D2H   SFRSYM    DATA     BYTE      P1_IF
      000000D4H   SFRSYM    DATA     BYTE      P2_IF
      000000ACH   SFRSYM    DATA     WORD      TIM2__DR
      000000FCH   SFRSYM    DATA     BYTE      P0_OE
      000000A4H   SFRSYM    DATA     WORD      TIM3__DR
      000000FDH   SFRSYM    DATA     BYTE      P1_OE
      00000094H   SFRSYM    DATA     WORD      TIM4__DR
      000000D0H.5 SFRSYM    DATA     BIT       F0
      000000FEH   SFRSYM    DATA     BYTE      P2_OE
      000000D0H.1 SFRSYM    DATA     BIT       F1
      000000FFH   SFRSYM    DATA     BYTE      P3_OE
      00000080H   SFRSYM    DATA     BIT       GP00
      000000E9H   SFRSYM    DATA     BYTE      P4_OE
      00000090H   SFRSYM    DATA     BIT       GP10
      00000080H.1 SFRSYM    DATA     BIT       GP01
      000000A8H.6 SFRSYM    DATA     BIT       RTCIE
      000000A0H   SFRSYM    DATA     BIT       GP20
      00000090H.1 SFRSYM    DATA     BIT       GP11
      00000080H.2 SFRSYM    DATA     BIT       GP02
      000000B0H   SFRSYM    DATA     BIT       GP30
      000000A0H.1 SFRSYM    DATA     BIT       GP21
      00000090H.2 SFRSYM    DATA     BIT       GP12
      00000080H.3 SFRSYM    DATA     BIT       GP03
      000000D8H.2 SFRSYM    DATA     BIT       PI2C_UT10
      000000B8H   SFRSYM    DATA     BIT       PLVW0
      000000A8H.1 SFRSYM    DATA     BIT       TSDIE
      000000D0H   SFRSYM    DATA     BYTE      PSW
      000000B0H.1 SFRSYM    DATA     BIT       GP31
      000000A0H.2 SFRSYM    DATA     BIT       GP22
      00000090H.3 SFRSYM    DATA     BIT       GP13
      00000080H.4 SFRSYM    DATA     BIT       GP04
      000000D8H.3 SFRSYM    DATA     BIT       PI2C_UT11
      000000B8H.1 SFRSYM    DATA     BIT       PLVW1
      000000A8H.3 SFRSYM    DATA     BIT       SPIIE
      00000088H.5 SFRSYM    DATA     BIT       TSDIF
      000000B0H.2 SFRSYM    DATA     BIT       GP32
      000000A0H.3 SFRSYM    DATA     BIT       GP23
      00000090H.4 SFRSYM    DATA     BIT       GP14
      00000080H.5 SFRSYM    DATA     BIT       GP05
      000000E8H.2 SFRSYM    DATA     BIT       GP42
      000000B0H.3 SFRSYM    DATA     BIT       GP33
      000000A0H.4 SFRSYM    DATA     BIT       GP24
      00000090H.5 SFRSYM    DATA     BIT       GP15
      00000080H.6 SFRSYM    DATA     BIT       GP06
      00000088H   SFRSYM    DATA     BIT       IT00
      00000007H   SYMBOL    DATA     BYTE      ePipe
      00000006H   SYMBOL    DATA     BYTE      bTmp
      00000007H   SYMBOL    DATA     BYTE      ePipe
      00000006H   SYMBOL    DATA     BYTE      bTmp
      00000006H   SYMBOL    DATA     WORD      ulAddr
      00000005H   SYMBOL    DATA     CHAR      cLen
LX51 LINKER/LOCATER V4.66.30.0                                                        04/09/2024  13:54:58  PAGE 94


      00000004H   SYMBOL    DATA     BYTE      bTmp
      00000006H   SYMBOL    DATA     WORD      ulAddr
      00000005H   SYMBOL    DATA     CHAR      cLen
      00000004H   SYMBOL    DATA     BYTE      bTmp
      00000007H   SYMBOL    DATA     BYTE      eEndian
      00000005H   SYMBOL    DATA     BYTE      bTmp
      00000006H   SYMBOL    DATA     BYTE      bTmp1
      00000007H   SYMBOL    DATA     BYTE      eIRQ
      00000005H   SYMBOL    DATA     BYTE      eIP
      00000007H   SYMBOL    DATA     BYTE      bTmp
      00000006H   SYMBOL    DATA     WORD      DMAAddr
      00000006H   SYMBOL    DATA     WORD      ulAddr
      00000005H   SYMBOL    DATA     BYTE      bTmp
      00000007H   SYMBOL    DATA     BYTE      eStatu
      00000007H   SYMBOL    DATA     BYTE      eStatu

      ---         MODULE    ---      ---       DRIVER
      01002888H   PUBLIC    CODE     ---       Driver_Init
      000000E8H.3 SFRSYM    DATA     BIT       GP43
      000000B0H.4 SFRSYM    DATA     BIT       GP34
      000000A0H.5 SFRSYM    DATA     BIT       GP25
      00000090H.6 SFRSYM    DATA     BIT       GP16
      00000080H.7 SFRSYM    DATA     BIT       GP07
      00000088H.1 SFRSYM    DATA     BIT       IT01
      00000088H.3 SFRSYM    DATA     BIT       IT10
      000000E8H.4 SFRSYM    DATA     BIT       GP44
      000000B0H.5 SFRSYM    DATA     BIT       GP35
      000000A0H.6 SFRSYM    DATA     BIT       GP26
      00000090H.7 SFRSYM    DATA     BIT       GP17
      00000080H   SFRSYM    DATA     BYTE      P0
      00000088H.4 SFRSYM    DATA     BIT       IT11
      000000C9H   SFRSYM    DATA     BYTE      RST_SR
      000000D9H   SFRSYM    DATA     BYTE      EVT_FILT
      000000E8H.5 SFRSYM    DATA     BIT       GP45
      000000B0H.6 SFRSYM    DATA     BIT       GP36
      000000A0H.7 SFRSYM    DATA     BIT       GP27
      00000090H   SFRSYM    DATA     BYTE      P1
      000000B0H.7 SFRSYM    DATA     BIT       GP37
      000000A0H   SFRSYM    DATA     BYTE      P2
      000000B0H   SFRSYM    DATA     BYTE      P3
      000000E8H   SFRSYM    DATA     BYTE      P4
      000000D0H.6 SFRSYM    DATA     BIT       AC
      000000A8H.7 SFRSYM    DATA     BIT       EA
      000000D5H   SFRSYM    DATA     BYTE      CMP_CR0
      000000D6H   SFRSYM    DATA     BYTE      CMP_CR1
      000000C6H   SFRSYM    DATA     WORD      MDU_A
      000000DAH   SFRSYM    DATA     BYTE      CMP_CR2
      000000C4H   SFRSYM    DATA     WORD      MDU_B
      000000B8H.2 SFRSYM    DATA     BIT       PX00
      000000DCH   SFRSYM    DATA     BYTE      CMP_CR3
      000000F8H   SFRSYM    DATA     BIT       OISUH
      000000C2H   SFRSYM    DATA     WORD      MDU_C
      000000B8H.3 SFRSYM    DATA     BIT       PX01
      000000B8H.4 SFRSYM    DATA     BIT       PX10
      000000E1H   SFRSYM    DATA     BYTE      CMP_CR4
      000000F8H.2 SFRSYM    DATA     BIT       OISVH
      000000CBH   SFRSYM    DATA     BYTE      MDU_D
      000000B8H.5 SFRSYM    DATA     BIT       PX11
      000000F8H.4 SFRSYM    DATA     BIT       OISWH
      000000F8H.1 SFRSYM    DATA     BIT       OISUL
      000000A8H   SFRSYM    DATA     BYTE      IE
      000000F8H.3 SFRSYM    DATA     BIT       OISVL
      000000F9H   SFRSYM    DATA     BYTE      PI_CR
      000000F8H.5 SFRSYM    DATA     BIT       OISWL
      000000D8H   SFRSYM    DATA     BIT       PCMP30
LX51 LINKER/LOCATER V4.66.30.0                                                        04/09/2024  13:54:58  PAGE 95


      000000AAH   SFRSYM    DATA     WORD      TIM2__CNTR
      000000D8H.1 SFRSYM    DATA     BIT       PCMP31
      000000A2H   SFRSYM    DATA     WORD      TIM3__CNTR
      00000092H   SFRSYM    DATA     WORD      TIM4__CNTR
      00000098H   SFRSYM    DATA     BIT       RI
      00000098H.6 SFRSYM    DATA     BIT       UT_MOD0
      00000098H.7 SFRSYM    DATA     BIT       UT_MOD1
      000000D0H.7 SFRSYM    DATA     BIT       CY
      00000098H.1 SFRSYM    DATA     BIT       TI
      000000C0H.2 SFRSYM    DATA     BIT       PTIM10
      00000084H   SFRSYM    DATA     BYTE      FLA_KEY
      000000C0H   SFRSYM    DATA     BIT       PTIM20
      000000C0H.3 SFRSYM    DATA     BIT       PTIM11
      00000098H   SFRSYM    DATA     BYTE      UT_CR
      000000C8H.2 SFRSYM    DATA     BIT       PTIM30
      000000C0H.1 SFRSYM    DATA     BIT       PTIM21
      00000099H   SFRSYM    DATA     BYTE      UT_DR
      000000C8H.3 SFRSYM    DATA     BIT       PTIM31
      000000C8H.6 SFRSYM    DATA     BIT       PTIM40
      000000C8H.7 SFRSYM    DATA     BIT       PTIM41
      000000D0H.2 SFRSYM    DATA     BIT       OV
      0000009AH   SFRSYM    DATA     WORD      UT_BAUD
      000000D8H.4 SFRSYM    DATA     BIT       PSPI_UT20
      000000D8H.5 SFRSYM    DATA     BIT       PSPI_UT21
      000000C8H.4 SFRSYM    DATA     BIT       PSYSTICK0
      000000C8H.5 SFRSYM    DATA     BIT       PSYSTICK1
      00000087H   SFRSYM    DATA     BYTE      PCON
      00000088H   SFRSYM    DATA     BYTE      TCON
      00000082H   SFRSYM    DATA     WORD      DPTR
      00000088H.2 SFRSYM    DATA     BIT       IF0
      000000AEH   SFRSYM    DATA     WORD      TIM2__ARR
      000000A1H   SFRSYM    DATA     BYTE      TIM2_CR0
      000000A6H   SFRSYM    DATA     WORD      TIM3__ARR
      0000009CH   SFRSYM    DATA     BYTE      TIM3_CR0
      000000A9H   SFRSYM    DATA     BYTE      TIM2_CR1
      00000096H   SFRSYM    DATA     WORD      TIM4__ARR
      0000009EH   SFRSYM    DATA     BYTE      TIM4_CR0
      0000009DH   SFRSYM    DATA     BYTE      TIM3_CR1
      000000F8H   SFRSYM    DATA     BYTE      DRV_OUT
      0000009FH   SFRSYM    DATA     BYTE      TIM4_CR1
      000000E0H   SFRSYM    DATA     BYTE      ACC
      000000DBH   SFRSYM    DATA     BYTE      LVSR
      000000A8H.4 SFRSYM    DATA     BIT       ES0
      00000085H   SFRSYM    DATA     BYTE      FLA_CR
      000000C0H.4 SFRSYM    DATA     BIT       PADC0
      000000B8H   SFRSYM    DATA     BYTE      IP0
      000000C0H.5 SFRSYM    DATA     BIT       PADC1
      000000C0H   SFRSYM    DATA     BYTE      IP1
      000000C8H   SFRSYM    DATA     BYTE      IP2
      00000098H.2 SFRSYM    DATA     BIT       RB8
      000000D8H   SFRSYM    DATA     BYTE      IP3
      000000A8H   SFRSYM    DATA     BIT       EX0
      00000098H.3 SFRSYM    DATA     BIT       TB8
      000000A8H.2 SFRSYM    DATA     BIT       EX1
      000000D0H   SFRSYM    DATA     BIT       P
      0000008AH   SFRSYM    DATA     BYTE      UT2_CR
      00000089H   SFRSYM    DATA     BYTE      UT2_DR
      00000098H.5 SFRSYM    DATA     BIT       SM2
      000000D8H.6 SFRSYM    DATA     BIT       PDMA0
      000000D8H.7 SFRSYM    DATA     BIT       PDMA1
      000000D0H.3 SFRSYM    DATA     BIT       RS0
      000000D0H.4 SFRSYM    DATA     BIT       RS1
      000000CAH   SFRSYM    DATA     BYTE      MDU_MD
      000000C1H   SFRSYM    DATA     BYTE      MDU_CR
      000000F8H.7 SFRSYM    DATA     BIT       MOE
LX51 LINKER/LOCATER V4.66.30.0                                                        04/09/2024  13:54:58  PAGE 96


      000000C0H.6 SFRSYM    DATA     BIT       PCMP0
      000000C0H.7 SFRSYM    DATA     BIT       PCMP1
      00000098H.4 SFRSYM    DATA     BIT       REN
      000000D7H   SFRSYM    DATA     BYTE      CMP_SR
      000000C8H   SFRSYM    DATA     BIT       PRTC0
      000000C8H.1 SFRSYM    DATA     BIT       PRTC1
      000000B8H.6 SFRSYM    DATA     BIT       PDRV0
      000000B8H.7 SFRSYM    DATA     BIT       PDRV1
      000000D1H   SFRSYM    DATA     BYTE      P1_IE
      000000D3H   SFRSYM    DATA     BYTE      P2_IE
      000000D2H   SFRSYM    DATA     BYTE      P1_IF
      000000D4H   SFRSYM    DATA     BYTE      P2_IF
      000000ACH   SFRSYM    DATA     WORD      TIM2__DR
      000000FCH   SFRSYM    DATA     BYTE      P0_OE
      000000A4H   SFRSYM    DATA     WORD      TIM3__DR
      000000FDH   SFRSYM    DATA     BYTE      P1_OE
      00000094H   SFRSYM    DATA     WORD      TIM4__DR
      000000D0H.5 SFRSYM    DATA     BIT       F0
      000000FEH   SFRSYM    DATA     BYTE      P2_OE
      000000D0H.1 SFRSYM    DATA     BIT       F1
      000000FFH   SFRSYM    DATA     BYTE      P3_OE
      00000080H   SFRSYM    DATA     BIT       GP00
      000000E9H   SFRSYM    DATA     BYTE      P4_OE
      00000090H   SFRSYM    DATA     BIT       GP10
      00000080H.1 SFRSYM    DATA     BIT       GP01
      000000A8H.6 SFRSYM    DATA     BIT       RTCIE
      000000A0H   SFRSYM    DATA     BIT       GP20
      00000090H.1 SFRSYM    DATA     BIT       GP11
      00000080H.2 SFRSYM    DATA     BIT       GP02
      000000B0H   SFRSYM    DATA     BIT       GP30
      000000A0H.1 SFRSYM    DATA     BIT       GP21
      00000090H.2 SFRSYM    DATA     BIT       GP12
      00000080H.3 SFRSYM    DATA     BIT       GP03
      000000D8H.2 SFRSYM    DATA     BIT       PI2C_UT10
      000000B8H   SFRSYM    DATA     BIT       PLVW0
      000000A8H.1 SFRSYM    DATA     BIT       TSDIE
      000000D0H   SFRSYM    DATA     BYTE      PSW
      000000B0H.1 SFRSYM    DATA     BIT       GP31
      000000A0H.2 SFRSYM    DATA     BIT       GP22
      00000090H.3 SFRSYM    DATA     BIT       GP13
      00000080H.4 SFRSYM    DATA     BIT       GP04
      000000D8H.3 SFRSYM    DATA     BIT       PI2C_UT11
      000000B8H.1 SFRSYM    DATA     BIT       PLVW1
      000000A8H.3 SFRSYM    DATA     BIT       SPIIE
      00000088H.5 SFRSYM    DATA     BIT       TSDIF
      000000B0H.2 SFRSYM    DATA     BIT       GP32
      000000A0H.3 SFRSYM    DATA     BIT       GP23
      00000090H.4 SFRSYM    DATA     BIT       GP14
      00000080H.5 SFRSYM    DATA     BIT       GP05
      000000E8H.2 SFRSYM    DATA     BIT       GP42
      000000B0H.3 SFRSYM    DATA     BIT       GP33
      000000A0H.4 SFRSYM    DATA     BIT       GP24
      00000090H.5 SFRSYM    DATA     BIT       GP15
      00000080H.6 SFRSYM    DATA     BIT       GP06
      00000088H   SFRSYM    DATA     BIT       IT00

      01002888H   BLOCK     CODE     ---       LVL=0
      01002888H   LINE      CODE     ---       #27
      01002888H   LINE      CODE     ---       #28
      01002888H   LINE      CODE     ---       #29
      01002892H   LINE      CODE     ---       #30
      01002896H   LINE      CODE     ---       #31
      0100289DH   LINE      CODE     ---       #33
      010028B2H   LINE      CODE     ---       #34
      010028B5H   LINE      CODE     ---       #36
LX51 LINKER/LOCATER V4.66.30.0                                                        04/09/2024  13:54:58  PAGE 97


      010028BCH   LINE      CODE     ---       #39
      010028C0H   LINE      CODE     ---       #46
      010028C4H   LINE      CODE     ---       #47
      010028C8H   LINE      CODE     ---       #50
      010028D1H   LINE      CODE     ---       #52
      010028D3H   LINE      CODE     ---       #53
      010028D5H   LINE      CODE     ---       #55
      010028DCH   LINE      CODE     ---       #57
      010028E1H   LINE      CODE     ---       #60
      010028E5H   LINE      CODE     ---       #62
      010028E9H   LINE      CODE     ---       #63
      010028EDH   LINE      CODE     ---       #64
      010028F1H   LINE      CODE     ---       #65
      010028F3H   LINE      CODE     ---       #66
      ---         BLOCKEND  ---      ---       LVL=0

      ---         MODULE    ---      ---       FLASH
      000000E8H.3 SFRSYM    DATA     BIT       GP43
      000000B0H.4 SFRSYM    DATA     BIT       GP34
      000000A0H.5 SFRSYM    DATA     BIT       GP25
      00000090H.6 SFRSYM    DATA     BIT       GP16
      00000080H.7 SFRSYM    DATA     BIT       GP07
      00000088H.1 SFRSYM    DATA     BIT       IT01
      00000088H.3 SFRSYM    DATA     BIT       IT10
      000000E8H.4 SFRSYM    DATA     BIT       GP44
      000000B0H.5 SFRSYM    DATA     BIT       GP35
      000000A0H.6 SFRSYM    DATA     BIT       GP26
      00000090H.7 SFRSYM    DATA     BIT       GP17
      00000080H   SFRSYM    DATA     BYTE      P0
      00000088H.4 SFRSYM    DATA     BIT       IT11
      000000C9H   SFRSYM    DATA     BYTE      RST_SR
      000000D9H   SFRSYM    DATA     BYTE      EVT_FILT
      000000E8H.5 SFRSYM    DATA     BIT       GP45
      000000B0H.6 SFRSYM    DATA     BIT       GP36
      000000A0H.7 SFRSYM    DATA     BIT       GP27
      00000090H   SFRSYM    DATA     BYTE      P1
      000000B0H.7 SFRSYM    DATA     BIT       GP37
      000000A0H   SFRSYM    DATA     BYTE      P2
      000000B0H   SFRSYM    DATA     BYTE      P3
      000000E8H   SFRSYM    DATA     BYTE      P4
      000000D0H.6 SFRSYM    DATA     BIT       AC
      000000A8H.7 SFRSYM    DATA     BIT       EA
      000000D5H   SFRSYM    DATA     BYTE      CMP_CR0
      000000D6H   SFRSYM    DATA     BYTE      CMP_CR1
      000000C6H   SFRSYM    DATA     WORD      MDU_A
      000000DAH   SFRSYM    DATA     BYTE      CMP_CR2
      000000C4H   SFRSYM    DATA     WORD      MDU_B
      000000B8H.2 SFRSYM    DATA     BIT       PX00
      000000DCH   SFRSYM    DATA     BYTE      CMP_CR3
      000000F8H   SFRSYM    DATA     BIT       OISUH
      000000C2H   SFRSYM    DATA     WORD      MDU_C
      000000B8H.3 SFRSYM    DATA     BIT       PX01
      000000B8H.4 SFRSYM    DATA     BIT       PX10
      000000E1H   SFRSYM    DATA     BYTE      CMP_CR4
      000000F8H.2 SFRSYM    DATA     BIT       OISVH
      000000CBH   SFRSYM    DATA     BYTE      MDU_D
      000000B8H.5 SFRSYM    DATA     BIT       PX11
      000000F8H.4 SFRSYM    DATA     BIT       OISWH
      000000F8H.1 SFRSYM    DATA     BIT       OISUL
      000000A8H   SFRSYM    DATA     BYTE      IE
      000000F8H.3 SFRSYM    DATA     BIT       OISVL
      000000F9H   SFRSYM    DATA     BYTE      PI_CR
      000000F8H.5 SFRSYM    DATA     BIT       OISWL
      000000D8H   SFRSYM    DATA     BIT       PCMP30
      000000AAH   SFRSYM    DATA     WORD      TIM2__CNTR
LX51 LINKER/LOCATER V4.66.30.0                                                        04/09/2024  13:54:58  PAGE 98


      000000D8H.1 SFRSYM    DATA     BIT       PCMP31
      000000A2H   SFRSYM    DATA     WORD      TIM3__CNTR
      00000092H   SFRSYM    DATA     WORD      TIM4__CNTR
      00000098H   SFRSYM    DATA     BIT       RI
      00000098H.6 SFRSYM    DATA     BIT       UT_MOD0
      00000098H.7 SFRSYM    DATA     BIT       UT_MOD1
      000000D0H.7 SFRSYM    DATA     BIT       CY
      00000098H.1 SFRSYM    DATA     BIT       TI
      000000C0H.2 SFRSYM    DATA     BIT       PTIM10
      00000084H   SFRSYM    DATA     BYTE      FLA_KEY
      000000C0H   SFRSYM    DATA     BIT       PTIM20
      000000C0H.3 SFRSYM    DATA     BIT       PTIM11
      00000098H   SFRSYM    DATA     BYTE      UT_CR
      000000C8H.2 SFRSYM    DATA     BIT       PTIM30
      000000C0H.1 SFRSYM    DATA     BIT       PTIM21
      00000099H   SFRSYM    DATA     BYTE      UT_DR
      000000C8H.3 SFRSYM    DATA     BIT       PTIM31
      000000C8H.6 SFRSYM    DATA     BIT       PTIM40
      000000C8H.7 SFRSYM    DATA     BIT       PTIM41
      000000D0H.2 SFRSYM    DATA     BIT       OV
      0000009AH   SFRSYM    DATA     WORD      UT_BAUD
      000000D8H.4 SFRSYM    DATA     BIT       PSPI_UT20
      000000D8H.5 SFRSYM    DATA     BIT       PSPI_UT21
      000000C8H.4 SFRSYM    DATA     BIT       PSYSTICK0
      000000C8H.5 SFRSYM    DATA     BIT       PSYSTICK1
      00000087H   SFRSYM    DATA     BYTE      PCON
      00000088H   SFRSYM    DATA     BYTE      TCON
      00000082H   SFRSYM    DATA     WORD      DPTR
      00000088H.2 SFRSYM    DATA     BIT       IF0
      000000AEH   SFRSYM    DATA     WORD      TIM2__ARR
      000000A1H   SFRSYM    DATA     BYTE      TIM2_CR0
      000000A6H   SFRSYM    DATA     WORD      TIM3__ARR
      0000009CH   SFRSYM    DATA     BYTE      TIM3_CR0
      000000A9H   SFRSYM    DATA     BYTE      TIM2_CR1
      00000096H   SFRSYM    DATA     WORD      TIM4__ARR
      0000009EH   SFRSYM    DATA     BYTE      TIM4_CR0
      0000009DH   SFRSYM    DATA     BYTE      TIM3_CR1
      000000F8H   SFRSYM    DATA     BYTE      DRV_OUT
      0000009FH   SFRSYM    DATA     BYTE      TIM4_CR1
      000000E0H   SFRSYM    DATA     BYTE      ACC
      000000DBH   SFRSYM    DATA     BYTE      LVSR
      000000A8H.4 SFRSYM    DATA     BIT       ES0
      00000085H   SFRSYM    DATA     BYTE      FLA_CR
      000000C0H.4 SFRSYM    DATA     BIT       PADC0
      000000B8H   SFRSYM    DATA     BYTE      IP0
      000000C0H.5 SFRSYM    DATA     BIT       PADC1
      000000C0H   SFRSYM    DATA     BYTE      IP1
      000000C8H   SFRSYM    DATA     BYTE      IP2
      00000098H.2 SFRSYM    DATA     BIT       RB8
      000000D8H   SFRSYM    DATA     BYTE      IP3
      000000A8H   SFRSYM    DATA     BIT       EX0
      00000098H.3 SFRSYM    DATA     BIT       TB8
      000000A8H.2 SFRSYM    DATA     BIT       EX1
      000000D0H   SFRSYM    DATA     BIT       P
      0000008AH   SFRSYM    DATA     BYTE      UT2_CR
      00000089H   SFRSYM    DATA     BYTE      UT2_DR
      00000098H.5 SFRSYM    DATA     BIT       SM2
      000000D8H.6 SFRSYM    DATA     BIT       PDMA0
      000000D8H.7 SFRSYM    DATA     BIT       PDMA1
      000000D0H.3 SFRSYM    DATA     BIT       RS0
      000000D0H.4 SFRSYM    DATA     BIT       RS1
      000000CAH   SFRSYM    DATA     BYTE      MDU_MD
      000000C1H   SFRSYM    DATA     BYTE      MDU_CR
      000000F8H.7 SFRSYM    DATA     BIT       MOE
      000000C0H.6 SFRSYM    DATA     BIT       PCMP0
LX51 LINKER/LOCATER V4.66.30.0                                                        04/09/2024  13:54:58  PAGE 99


      000000C0H.7 SFRSYM    DATA     BIT       PCMP1
      00000098H.4 SFRSYM    DATA     BIT       REN
      000000D7H   SFRSYM    DATA     BYTE      CMP_SR
      000000C8H   SFRSYM    DATA     BIT       PRTC0
      000000C8H.1 SFRSYM    DATA     BIT       PRTC1
      000000B8H.6 SFRSYM    DATA     BIT       PDRV0
      000000B8H.7 SFRSYM    DATA     BIT       PDRV1
      000000D1H   SFRSYM    DATA     BYTE      P1_IE
      000000D3H   SFRSYM    DATA     BYTE      P2_IE
      000000D2H   SFRSYM    DATA     BYTE      P1_IF
      000000D4H   SFRSYM    DATA     BYTE      P2_IF
      000000ACH   SFRSYM    DATA     WORD      TIM2__DR
      000000FCH   SFRSYM    DATA     BYTE      P0_OE
      000000A4H   SFRSYM    DATA     WORD      TIM3__DR
      000000FDH   SFRSYM    DATA     BYTE      P1_OE
      00000094H   SFRSYM    DATA     WORD      TIM4__DR
      000000D0H.5 SFRSYM    DATA     BIT       F0
      000000FEH   SFRSYM    DATA     BYTE      P2_OE
      000000D0H.1 SFRSYM    DATA     BIT       F1
      000000FFH   SFRSYM    DATA     BYTE      P3_OE
      00000080H   SFRSYM    DATA     BIT       GP00
      000000E9H   SFRSYM    DATA     BYTE      P4_OE
      00000090H   SFRSYM    DATA     BIT       GP10
      00000080H.1 SFRSYM    DATA     BIT       GP01
      000000A8H.6 SFRSYM    DATA     BIT       RTCIE
      000000A0H   SFRSYM    DATA     BIT       GP20
      00000090H.1 SFRSYM    DATA     BIT       GP11
      00000080H.2 SFRSYM    DATA     BIT       GP02
      000000B0H   SFRSYM    DATA     BIT       GP30
      000000A0H.1 SFRSYM    DATA     BIT       GP21
      00000090H.2 SFRSYM    DATA     BIT       GP12
      00000080H.3 SFRSYM    DATA     BIT       GP03
      000000D8H.2 SFRSYM    DATA     BIT       PI2C_UT10
      000000B8H   SFRSYM    DATA     BIT       PLVW0
      000000A8H.1 SFRSYM    DATA     BIT       TSDIE
      000000D0H   SFRSYM    DATA     BYTE      PSW
      000000B0H.1 SFRSYM    DATA     BIT       GP31
      000000A0H.2 SFRSYM    DATA     BIT       GP22
      00000090H.3 SFRSYM    DATA     BIT       GP13
      00000080H.4 SFRSYM    DATA     BIT       GP04
      000000D8H.3 SFRSYM    DATA     BIT       PI2C_UT11
      000000B8H.1 SFRSYM    DATA     BIT       PLVW1
      000000A8H.3 SFRSYM    DATA     BIT       SPIIE
      00000088H.5 SFRSYM    DATA     BIT       TSDIF
      000000B0H.2 SFRSYM    DATA     BIT       GP32
      000000A0H.3 SFRSYM    DATA     BIT       GP23
      00000090H.4 SFRSYM    DATA     BIT       GP14
      00000080H.5 SFRSYM    DATA     BIT       GP05
      000000E8H.2 SFRSYM    DATA     BIT       GP42
      000000B0H.3 SFRSYM    DATA     BIT       GP33
      000000A0H.4 SFRSYM    DATA     BIT       GP24
      00000090H.5 SFRSYM    DATA     BIT       GP15
      00000080H.6 SFRSYM    DATA     BIT       GP06
      00000088H   SFRSYM    DATA     BIT       IT00
      00000082H   SYMBOL    DATA     WORD      wAddr
      00000005H   SYMBOL    DATA     BYTE      ucCmd
      00000003H   SYMBOL    DATA     BYTE      ucDat
      00000004H   SYMBOL    DATA     BYTE      bEATmp
      00000007H   SYMBOL    DATA     BYTE      bError
      00000006H   SYMBOL    DATA     WORD      wAddr
      00000005H   SYMBOL    DATA     BYTE      ucDat
      00000001H   SYMBOL    DATA     BYTE      bEATmp
      00000007H   SYMBOL    DATA     BYTE      bError
      00000007H   SYMBOL    DATA     BYTE      bError

LX51 LINKER/LOCATER V4.66.30.0                                                        04/09/2024  13:54:58  PAGE 100


      ---         MODULE    ---      ---       GPIO
      01000006H   PUBLIC    CODE     ---       GPIO_Init
      000000E8H.3 SFRSYM    DATA     BIT       GP43
      000000B0H.4 SFRSYM    DATA     BIT       GP34
      000000A0H.5 SFRSYM    DATA     BIT       GP25
      00000090H.6 SFRSYM    DATA     BIT       GP16
      00000080H.7 SFRSYM    DATA     BIT       GP07
      00000088H.1 SFRSYM    DATA     BIT       IT01
      00000088H.3 SFRSYM    DATA     BIT       IT10
      000000E8H.4 SFRSYM    DATA     BIT       GP44
      000000B0H.5 SFRSYM    DATA     BIT       GP35
      000000A0H.6 SFRSYM    DATA     BIT       GP26
      00000090H.7 SFRSYM    DATA     BIT       GP17
      00000080H   SFRSYM    DATA     BYTE      P0
      00000088H.4 SFRSYM    DATA     BIT       IT11
      000000C9H   SFRSYM    DATA     BYTE      RST_SR
      000000D9H   SFRSYM    DATA     BYTE      EVT_FILT
      000000E8H.5 SFRSYM    DATA     BIT       GP45
      000000B0H.6 SFRSYM    DATA     BIT       GP36
      000000A0H.7 SFRSYM    DATA     BIT       GP27
      00000090H   SFRSYM    DATA     BYTE      P1
      000000B0H.7 SFRSYM    DATA     BIT       GP37
      000000A0H   SFRSYM    DATA     BYTE      P2
      000000B0H   SFRSYM    DATA     BYTE      P3
      000000E8H   SFRSYM    DATA     BYTE      P4
      000000D0H.6 SFRSYM    DATA     BIT       AC
      000000A8H.7 SFRSYM    DATA     BIT       EA
      000000D5H   SFRSYM    DATA     BYTE      CMP_CR0
      000000D6H   SFRSYM    DATA     BYTE      CMP_CR1
      000000C6H   SFRSYM    DATA     WORD      MDU_A
      000000DAH   SFRSYM    DATA     BYTE      CMP_CR2
      000000C4H   SFRSYM    DATA     WORD      MDU_B
      000000B8H.2 SFRSYM    DATA     BIT       PX00
      000000DCH   SFRSYM    DATA     BYTE      CMP_CR3
      000000F8H   SFRSYM    DATA     BIT       OISUH
      000000C2H   SFRSYM    DATA     WORD      MDU_C
      000000B8H.3 SFRSYM    DATA     BIT       PX01
      000000B8H.4 SFRSYM    DATA     BIT       PX10
      000000E1H   SFRSYM    DATA     BYTE      CMP_CR4
      000000F8H.2 SFRSYM    DATA     BIT       OISVH
      000000CBH   SFRSYM    DATA     BYTE      MDU_D
      000000B8H.5 SFRSYM    DATA     BIT       PX11
      000000F8H.4 SFRSYM    DATA     BIT       OISWH
      000000F8H.1 SFRSYM    DATA     BIT       OISUL
      000000A8H   SFRSYM    DATA     BYTE      IE
      000000F8H.3 SFRSYM    DATA     BIT       OISVL
      000000F9H   SFRSYM    DATA     BYTE      PI_CR
      000000F8H.5 SFRSYM    DATA     BIT       OISWL
      000000D8H   SFRSYM    DATA     BIT       PCMP30
      000000AAH   SFRSYM    DATA     WORD      TIM2__CNTR
      000000D8H.1 SFRSYM    DATA     BIT       PCMP31
      000000A2H   SFRSYM    DATA     WORD      TIM3__CNTR
      00000092H   SFRSYM    DATA     WORD      TIM4__CNTR
      00000098H   SFRSYM    DATA     BIT       RI
      00000098H.6 SFRSYM    DATA     BIT       UT_MOD0
      00000098H.7 SFRSYM    DATA     BIT       UT_MOD1
      000000D0H.7 SFRSYM    DATA     BIT       CY
      00000098H.1 SFRSYM    DATA     BIT       TI
      000000C0H.2 SFRSYM    DATA     BIT       PTIM10
      00000084H   SFRSYM    DATA     BYTE      FLA_KEY
      000000C0H   SFRSYM    DATA     BIT       PTIM20
      000000C0H.3 SFRSYM    DATA     BIT       PTIM11
      00000098H   SFRSYM    DATA     BYTE      UT_CR
      000000C8H.2 SFRSYM    DATA     BIT       PTIM30
      000000C0H.1 SFRSYM    DATA     BIT       PTIM21
LX51 LINKER/LOCATER V4.66.30.0                                                        04/09/2024  13:54:58  PAGE 101


      00000099H   SFRSYM    DATA     BYTE      UT_DR
      000000C8H.3 SFRSYM    DATA     BIT       PTIM31
      000000C8H.6 SFRSYM    DATA     BIT       PTIM40
      000000C8H.7 SFRSYM    DATA     BIT       PTIM41
      000000D0H.2 SFRSYM    DATA     BIT       OV
      0000009AH   SFRSYM    DATA     WORD      UT_BAUD
      000000D8H.4 SFRSYM    DATA     BIT       PSPI_UT20
      000000D8H.5 SFRSYM    DATA     BIT       PSPI_UT21
      000000C8H.4 SFRSYM    DATA     BIT       PSYSTICK0
      000000C8H.5 SFRSYM    DATA     BIT       PSYSTICK1
      00000087H   SFRSYM    DATA     BYTE      PCON
      00000088H   SFRSYM    DATA     BYTE      TCON
      00000082H   SFRSYM    DATA     WORD      DPTR
      00000088H.2 SFRSYM    DATA     BIT       IF0
      000000AEH   SFRSYM    DATA     WORD      TIM2__ARR
      000000A1H   SFRSYM    DATA     BYTE      TIM2_CR0
      000000A6H   SFRSYM    DATA     WORD      TIM3__ARR
      0000009CH   SFRSYM    DATA     BYTE      TIM3_CR0
      000000A9H   SFRSYM    DATA     BYTE      TIM2_CR1
      00000096H   SFRSYM    DATA     WORD      TIM4__ARR
      0000009EH   SFRSYM    DATA     BYTE      TIM4_CR0
      0000009DH   SFRSYM    DATA     BYTE      TIM3_CR1
      000000F8H   SFRSYM    DATA     BYTE      DRV_OUT
      0000009FH   SFRSYM    DATA     BYTE      TIM4_CR1
      000000E0H   SFRSYM    DATA     BYTE      ACC
      000000DBH   SFRSYM    DATA     BYTE      LVSR
      000000A8H.4 SFRSYM    DATA     BIT       ES0
      00000085H   SFRSYM    DATA     BYTE      FLA_CR
      000000C0H.4 SFRSYM    DATA     BIT       PADC0
      000000B8H   SFRSYM    DATA     BYTE      IP0
      000000C0H.5 SFRSYM    DATA     BIT       PADC1
      000000C0H   SFRSYM    DATA     BYTE      IP1
      000000C8H   SFRSYM    DATA     BYTE      IP2
      00000098H.2 SFRSYM    DATA     BIT       RB8
      000000D8H   SFRSYM    DATA     BYTE      IP3
      000000A8H   SFRSYM    DATA     BIT       EX0
      00000098H.3 SFRSYM    DATA     BIT       TB8
      000000A8H.2 SFRSYM    DATA     BIT       EX1
      000000D0H   SFRSYM    DATA     BIT       P
      0000008AH   SFRSYM    DATA     BYTE      UT2_CR
      00000089H   SFRSYM    DATA     BYTE      UT2_DR
      00000098H.5 SFRSYM    DATA     BIT       SM2
      000000D8H.6 SFRSYM    DATA     BIT       PDMA0
      000000D8H.7 SFRSYM    DATA     BIT       PDMA1
      000000D0H.3 SFRSYM    DATA     BIT       RS0
      000000D0H.4 SFRSYM    DATA     BIT       RS1
      000000CAH   SFRSYM    DATA     BYTE      MDU_MD
      000000C1H   SFRSYM    DATA     BYTE      MDU_CR
      000000F8H.7 SFRSYM    DATA     BIT       MOE
      000000C0H.6 SFRSYM    DATA     BIT       PCMP0
      000000C0H.7 SFRSYM    DATA     BIT       PCMP1
      00000098H.4 SFRSYM    DATA     BIT       REN
      000000D7H   SFRSYM    DATA     BYTE      CMP_SR
      000000C8H   SFRSYM    DATA     BIT       PRTC0
      000000C8H.1 SFRSYM    DATA     BIT       PRTC1
      000000B8H.6 SFRSYM    DATA     BIT       PDRV0
      000000B8H.7 SFRSYM    DATA     BIT       PDRV1
      000000D1H   SFRSYM    DATA     BYTE      P1_IE
      000000D3H   SFRSYM    DATA     BYTE      P2_IE
      000000D2H   SFRSYM    DATA     BYTE      P1_IF
      000000D4H   SFRSYM    DATA     BYTE      P2_IF
      000000ACH   SFRSYM    DATA     WORD      TIM2__DR
      000000FCH   SFRSYM    DATA     BYTE      P0_OE
      000000A4H   SFRSYM    DATA     WORD      TIM3__DR
      000000FDH   SFRSYM    DATA     BYTE      P1_OE
LX51 LINKER/LOCATER V4.66.30.0                                                        04/09/2024  13:54:58  PAGE 102


      00000094H   SFRSYM    DATA     WORD      TIM4__DR
      000000D0H.5 SFRSYM    DATA     BIT       F0
      000000FEH   SFRSYM    DATA     BYTE      P2_OE
      000000D0H.1 SFRSYM    DATA     BIT       F1
      000000FFH   SFRSYM    DATA     BYTE      P3_OE
      00000080H   SFRSYM    DATA     BIT       GP00
      000000E9H   SFRSYM    DATA     BYTE      P4_OE
      00000090H   SFRSYM    DATA     BIT       GP10
      00000080H.1 SFRSYM    DATA     BIT       GP01
      000000A8H.6 SFRSYM    DATA     BIT       RTCIE
      000000A0H   SFRSYM    DATA     BIT       GP20
      00000090H.1 SFRSYM    DATA     BIT       GP11
      00000080H.2 SFRSYM    DATA     BIT       GP02
      000000B0H   SFRSYM    DATA     BIT       GP30
      000000A0H.1 SFRSYM    DATA     BIT       GP21
      00000090H.2 SFRSYM    DATA     BIT       GP12
      00000080H.3 SFRSYM    DATA     BIT       GP03
      000000D8H.2 SFRSYM    DATA     BIT       PI2C_UT10
      000000B8H   SFRSYM    DATA     BIT       PLVW0
      000000A8H.1 SFRSYM    DATA     BIT       TSDIE
      000000D0H   SFRSYM    DATA     BYTE      PSW
      000000B0H.1 SFRSYM    DATA     BIT       GP31
      000000A0H.2 SFRSYM    DATA     BIT       GP22
      00000090H.3 SFRSYM    DATA     BIT       GP13
      00000080H.4 SFRSYM    DATA     BIT       GP04
      000000D8H.3 SFRSYM    DATA     BIT       PI2C_UT11
      000000B8H.1 SFRSYM    DATA     BIT       PLVW1
      000000A8H.3 SFRSYM    DATA     BIT       SPIIE
      00000088H.5 SFRSYM    DATA     BIT       TSDIF
      000000B0H.2 SFRSYM    DATA     BIT       GP32
      000000A0H.3 SFRSYM    DATA     BIT       GP23
      00000090H.4 SFRSYM    DATA     BIT       GP14
      00000080H.5 SFRSYM    DATA     BIT       GP05
      000000E8H.2 SFRSYM    DATA     BIT       GP42
      000000B0H.3 SFRSYM    DATA     BIT       GP33
      000000A0H.4 SFRSYM    DATA     BIT       GP24
      00000090H.5 SFRSYM    DATA     BIT       GP15
      00000080H.6 SFRSYM    DATA     BIT       GP06
      00000088H   SFRSYM    DATA     BIT       IT00

      01000006H   BLOCK     CODE     ---       LVL=0
      01000006H   LINE      CODE     ---       #13
      01000006H   LINE      CODE     ---       #14
      01000006H   LINE      CODE     ---       #15
      01000009H   LINE      CODE     ---       #16
      01000010H   LINE      CODE     ---       #17
      01000012H   LINE      CODE     ---       #18
      ---         BLOCKEND  ---      ---       LVL=0

      ---         MODULE    ---      ---       I2C
      000000E8H.3 SFRSYM    DATA     BIT       GP43
      000000B0H.4 SFRSYM    DATA     BIT       GP34
      000000A0H.5 SFRSYM    DATA     BIT       GP25
      00000090H.6 SFRSYM    DATA     BIT       GP16
      00000080H.7 SFRSYM    DATA     BIT       GP07
      00000088H.1 SFRSYM    DATA     BIT       IT01
      00000088H.3 SFRSYM    DATA     BIT       IT10
      000000E8H.4 SFRSYM    DATA     BIT       GP44
      000000B0H.5 SFRSYM    DATA     BIT       GP35
      000000A0H.6 SFRSYM    DATA     BIT       GP26
      00000090H.7 SFRSYM    DATA     BIT       GP17
      00000080H   SFRSYM    DATA     BYTE      P0
      00000088H.4 SFRSYM    DATA     BIT       IT11
      000000C9H   SFRSYM    DATA     BYTE      RST_SR
      000000D9H   SFRSYM    DATA     BYTE      EVT_FILT
LX51 LINKER/LOCATER V4.66.30.0                                                        04/09/2024  13:54:58  PAGE 103


      000000E8H.5 SFRSYM    DATA     BIT       GP45
      000000B0H.6 SFRSYM    DATA     BIT       GP36
      000000A0H.7 SFRSYM    DATA     BIT       GP27
      00000090H   SFRSYM    DATA     BYTE      P1
      000000B0H.7 SFRSYM    DATA     BIT       GP37
      000000A0H   SFRSYM    DATA     BYTE      P2
      000000B0H   SFRSYM    DATA     BYTE      P3
      000000E8H   SFRSYM    DATA     BYTE      P4
      000000D0H.6 SFRSYM    DATA     BIT       AC
      000000A8H.7 SFRSYM    DATA     BIT       EA
      000000D5H   SFRSYM    DATA     BYTE      CMP_CR0
      000000D6H   SFRSYM    DATA     BYTE      CMP_CR1
      000000C6H   SFRSYM    DATA     WORD      MDU_A
      000000DAH   SFRSYM    DATA     BYTE      CMP_CR2
      000000C4H   SFRSYM    DATA     WORD      MDU_B
      000000B8H.2 SFRSYM    DATA     BIT       PX00
      000000DCH   SFRSYM    DATA     BYTE      CMP_CR3
      000000F8H   SFRSYM    DATA     BIT       OISUH
      000000C2H   SFRSYM    DATA     WORD      MDU_C
      000000B8H.3 SFRSYM    DATA     BIT       PX01
      000000B8H.4 SFRSYM    DATA     BIT       PX10
      000000E1H   SFRSYM    DATA     BYTE      CMP_CR4
      000000F8H.2 SFRSYM    DATA     BIT       OISVH
      000000CBH   SFRSYM    DATA     BYTE      MDU_D
      000000B8H.5 SFRSYM    DATA     BIT       PX11
      000000F8H.4 SFRSYM    DATA     BIT       OISWH
      000000F8H.1 SFRSYM    DATA     BIT       OISUL
      000000A8H   SFRSYM    DATA     BYTE      IE
      000000F8H.3 SFRSYM    DATA     BIT       OISVL
      000000F9H   SFRSYM    DATA     BYTE      PI_CR
      000000F8H.5 SFRSYM    DATA     BIT       OISWL
      000000D8H   SFRSYM    DATA     BIT       PCMP30
      000000AAH   SFRSYM    DATA     WORD      TIM2__CNTR
      000000D8H.1 SFRSYM    DATA     BIT       PCMP31
      000000A2H   SFRSYM    DATA     WORD      TIM3__CNTR
      00000092H   SFRSYM    DATA     WORD      TIM4__CNTR
      00000098H   SFRSYM    DATA     BIT       RI
      00000098H.6 SFRSYM    DATA     BIT       UT_MOD0
      00000098H.7 SFRSYM    DATA     BIT       UT_MOD1
      000000D0H.7 SFRSYM    DATA     BIT       CY
      00000098H.1 SFRSYM    DATA     BIT       TI
      000000C0H.2 SFRSYM    DATA     BIT       PTIM10
      00000084H   SFRSYM    DATA     BYTE      FLA_KEY
      000000C0H   SFRSYM    DATA     BIT       PTIM20
      000000C0H.3 SFRSYM    DATA     BIT       PTIM11
      00000098H   SFRSYM    DATA     BYTE      UT_CR
      000000C8H.2 SFRSYM    DATA     BIT       PTIM30
      000000C0H.1 SFRSYM    DATA     BIT       PTIM21
      00000099H   SFRSYM    DATA     BYTE      UT_DR
      000000C8H.3 SFRSYM    DATA     BIT       PTIM31
      000000C8H.6 SFRSYM    DATA     BIT       PTIM40
      000000C8H.7 SFRSYM    DATA     BIT       PTIM41
      000000D0H.2 SFRSYM    DATA     BIT       OV
      0000009AH   SFRSYM    DATA     WORD      UT_BAUD
      000000D8H.4 SFRSYM    DATA     BIT       PSPI_UT20
      000000D8H.5 SFRSYM    DATA     BIT       PSPI_UT21
      000000C8H.4 SFRSYM    DATA     BIT       PSYSTICK0
      000000C8H.5 SFRSYM    DATA     BIT       PSYSTICK1
      00000087H   SFRSYM    DATA     BYTE      PCON
      00000088H   SFRSYM    DATA     BYTE      TCON
      00000082H   SFRSYM    DATA     WORD      DPTR
      00000088H.2 SFRSYM    DATA     BIT       IF0
      000000AEH   SFRSYM    DATA     WORD      TIM2__ARR
      000000A1H   SFRSYM    DATA     BYTE      TIM2_CR0
      000000A6H   SFRSYM    DATA     WORD      TIM3__ARR
LX51 LINKER/LOCATER V4.66.30.0                                                        04/09/2024  13:54:58  PAGE 104


      0000009CH   SFRSYM    DATA     BYTE      TIM3_CR0
      000000A9H   SFRSYM    DATA     BYTE      TIM2_CR1
      00000096H   SFRSYM    DATA     WORD      TIM4__ARR
      0000009EH   SFRSYM    DATA     BYTE      TIM4_CR0
      0000009DH   SFRSYM    DATA     BYTE      TIM3_CR1
      000000F8H   SFRSYM    DATA     BYTE      DRV_OUT
      0000009FH   SFRSYM    DATA     BYTE      TIM4_CR1
      000000E0H   SFRSYM    DATA     BYTE      ACC
      000000DBH   SFRSYM    DATA     BYTE      LVSR
      000000A8H.4 SFRSYM    DATA     BIT       ES0
      00000085H   SFRSYM    DATA     BYTE      FLA_CR
      000000C0H.4 SFRSYM    DATA     BIT       PADC0
      000000B8H   SFRSYM    DATA     BYTE      IP0
      000000C0H.5 SFRSYM    DATA     BIT       PADC1
      000000C0H   SFRSYM    DATA     BYTE      IP1
      000000C8H   SFRSYM    DATA     BYTE      IP2
      00000098H.2 SFRSYM    DATA     BIT       RB8
      000000D8H   SFRSYM    DATA     BYTE      IP3
      000000A8H   SFRSYM    DATA     BIT       EX0
      00000098H.3 SFRSYM    DATA     BIT       TB8
      000000A8H.2 SFRSYM    DATA     BIT       EX1
      000000D0H   SFRSYM    DATA     BIT       P
      0000008AH   SFRSYM    DATA     BYTE      UT2_CR
      00000089H   SFRSYM    DATA     BYTE      UT2_DR
      00000098H.5 SFRSYM    DATA     BIT       SM2
      000000D8H.6 SFRSYM    DATA     BIT       PDMA0
      000000D8H.7 SFRSYM    DATA     BIT       PDMA1
      000000D0H.3 SFRSYM    DATA     BIT       RS0
      000000D0H.4 SFRSYM    DATA     BIT       RS1
      000000CAH   SFRSYM    DATA     BYTE      MDU_MD
      000000C1H   SFRSYM    DATA     BYTE      MDU_CR
      000000F8H.7 SFRSYM    DATA     BIT       MOE
      000000C0H.6 SFRSYM    DATA     BIT       PCMP0
      000000C0H.7 SFRSYM    DATA     BIT       PCMP1
      00000098H.4 SFRSYM    DATA     BIT       REN
      000000D7H   SFRSYM    DATA     BYTE      CMP_SR
      000000C8H   SFRSYM    DATA     BIT       PRTC0
      000000C8H.1 SFRSYM    DATA     BIT       PRTC1
      000000B8H.6 SFRSYM    DATA     BIT       PDRV0
      000000B8H.7 SFRSYM    DATA     BIT       PDRV1
      000000D1H   SFRSYM    DATA     BYTE      P1_IE
      000000D3H   SFRSYM    DATA     BYTE      P2_IE
      000000D2H   SFRSYM    DATA     BYTE      P1_IF
      000000D4H   SFRSYM    DATA     BYTE      P2_IF
      000000ACH   SFRSYM    DATA     WORD      TIM2__DR
      000000FCH   SFRSYM    DATA     BYTE      P0_OE
      000000A4H   SFRSYM    DATA     WORD      TIM3__DR
      000000FDH   SFRSYM    DATA     BYTE      P1_OE
      00000094H   SFRSYM    DATA     WORD      TIM4__DR
      000000D0H.5 SFRSYM    DATA     BIT       F0
      000000FEH   SFRSYM    DATA     BYTE      P2_OE
      000000D0H.1 SFRSYM    DATA     BIT       F1
      000000FFH   SFRSYM    DATA     BYTE      P3_OE
      00000080H   SFRSYM    DATA     BIT       GP00
      000000E9H   SFRSYM    DATA     BYTE      P4_OE
      00000090H   SFRSYM    DATA     BIT       GP10
      00000080H.1 SFRSYM    DATA     BIT       GP01
      000000A8H.6 SFRSYM    DATA     BIT       RTCIE
      000000A0H   SFRSYM    DATA     BIT       GP20
      00000090H.1 SFRSYM    DATA     BIT       GP11
      00000080H.2 SFRSYM    DATA     BIT       GP02
      000000B0H   SFRSYM    DATA     BIT       GP30
      000000A0H.1 SFRSYM    DATA     BIT       GP21
      00000090H.2 SFRSYM    DATA     BIT       GP12
      00000080H.3 SFRSYM    DATA     BIT       GP03
LX51 LINKER/LOCATER V4.66.30.0                                                        04/09/2024  13:54:58  PAGE 105


      000000D8H.2 SFRSYM    DATA     BIT       PI2C_UT10
      000000B8H   SFRSYM    DATA     BIT       PLVW0
      000000A8H.1 SFRSYM    DATA     BIT       TSDIE
      000000D0H   SFRSYM    DATA     BYTE      PSW
      000000B0H.1 SFRSYM    DATA     BIT       GP31
      000000A0H.2 SFRSYM    DATA     BIT       GP22
      00000090H.3 SFRSYM    DATA     BIT       GP13
      00000080H.4 SFRSYM    DATA     BIT       GP04
      000000D8H.3 SFRSYM    DATA     BIT       PI2C_UT11
      000000B8H.1 SFRSYM    DATA     BIT       PLVW1
      000000A8H.3 SFRSYM    DATA     BIT       SPIIE
      00000088H.5 SFRSYM    DATA     BIT       TSDIF
      000000B0H.2 SFRSYM    DATA     BIT       GP32
      000000A0H.3 SFRSYM    DATA     BIT       GP23
      00000090H.4 SFRSYM    DATA     BIT       GP14
      00000080H.5 SFRSYM    DATA     BIT       GP05
      000000E8H.2 SFRSYM    DATA     BIT       GP42
      000000B0H.3 SFRSYM    DATA     BIT       GP33
      000000A0H.4 SFRSYM    DATA     BIT       GP24
      00000090H.5 SFRSYM    DATA     BIT       GP15
      00000080H.6 SFRSYM    DATA     BIT       GP06
      00000088H   SFRSYM    DATA     BIT       IT00

      ---         MODULE    ---      ---       SPI
      000000E8H.3 SFRSYM    DATA     BIT       GP43
      000000B0H.4 SFRSYM    DATA     BIT       GP34
      000000A0H.5 SFRSYM    DATA     BIT       GP25
      00000090H.6 SFRSYM    DATA     BIT       GP16
      00000080H.7 SFRSYM    DATA     BIT       GP07
      00000088H.1 SFRSYM    DATA     BIT       IT01
      00000088H.3 SFRSYM    DATA     BIT       IT10
      000000E8H.4 SFRSYM    DATA     BIT       GP44
      000000B0H.5 SFRSYM    DATA     BIT       GP35
      000000A0H.6 SFRSYM    DATA     BIT       GP26
      00000090H.7 SFRSYM    DATA     BIT       GP17
      00000080H   SFRSYM    DATA     BYTE      P0
      00000088H.4 SFRSYM    DATA     BIT       IT11
      000000C9H   SFRSYM    DATA     BYTE      RST_SR
      000000D9H   SFRSYM    DATA     BYTE      EVT_FILT
      000000E8H.5 SFRSYM    DATA     BIT       GP45
      000000B0H.6 SFRSYM    DATA     BIT       GP36
      000000A0H.7 SFRSYM    DATA     BIT       GP27
      00000090H   SFRSYM    DATA     BYTE      P1
      000000B0H.7 SFRSYM    DATA     BIT       GP37
      000000A0H   SFRSYM    DATA     BYTE      P2
      000000B0H   SFRSYM    DATA     BYTE      P3
      000000E8H   SFRSYM    DATA     BYTE      P4
      000000D0H.6 SFRSYM    DATA     BIT       AC
      000000A8H.7 SFRSYM    DATA     BIT       EA
      000000D5H   SFRSYM    DATA     BYTE      CMP_CR0
      000000D6H   SFRSYM    DATA     BYTE      CMP_CR1
      000000C6H   SFRSYM    DATA     WORD      MDU_A
      000000DAH   SFRSYM    DATA     BYTE      CMP_CR2
      000000C4H   SFRSYM    DATA     WORD      MDU_B
      000000B8H.2 SFRSYM    DATA     BIT       PX00
      000000DCH   SFRSYM    DATA     BYTE      CMP_CR3
      000000F8H   SFRSYM    DATA     BIT       OISUH
      000000C2H   SFRSYM    DATA     WORD      MDU_C
      000000B8H.3 SFRSYM    DATA     BIT       PX01
      000000B8H.4 SFRSYM    DATA     BIT       PX10
      000000E1H   SFRSYM    DATA     BYTE      CMP_CR4
      000000F8H.2 SFRSYM    DATA     BIT       OISVH
      000000CBH   SFRSYM    DATA     BYTE      MDU_D
      000000B8H.5 SFRSYM    DATA     BIT       PX11
      000000F8H.4 SFRSYM    DATA     BIT       OISWH
LX51 LINKER/LOCATER V4.66.30.0                                                        04/09/2024  13:54:58  PAGE 106


      000000F8H.1 SFRSYM    DATA     BIT       OISUL
      000000A8H   SFRSYM    DATA     BYTE      IE
      000000F8H.3 SFRSYM    DATA     BIT       OISVL
      000000F9H   SFRSYM    DATA     BYTE      PI_CR
      000000F8H.5 SFRSYM    DATA     BIT       OISWL
      000000D8H   SFRSYM    DATA     BIT       PCMP30
      000000AAH   SFRSYM    DATA     WORD      TIM2__CNTR
      000000D8H.1 SFRSYM    DATA     BIT       PCMP31
      000000A2H   SFRSYM    DATA     WORD      TIM3__CNTR
      00000092H   SFRSYM    DATA     WORD      TIM4__CNTR
      00000098H   SFRSYM    DATA     BIT       RI
      00000098H.6 SFRSYM    DATA     BIT       UT_MOD0
      00000098H.7 SFRSYM    DATA     BIT       UT_MOD1
      000000D0H.7 SFRSYM    DATA     BIT       CY
      00000098H.1 SFRSYM    DATA     BIT       TI
      000000C0H.2 SFRSYM    DATA     BIT       PTIM10
      00000084H   SFRSYM    DATA     BYTE      FLA_KEY
      000000C0H   SFRSYM    DATA     BIT       PTIM20
      000000C0H.3 SFRSYM    DATA     BIT       PTIM11
      00000098H   SFRSYM    DATA     BYTE      UT_CR
      000000C8H.2 SFRSYM    DATA     BIT       PTIM30
      000000C0H.1 SFRSYM    DATA     BIT       PTIM21
      00000099H   SFRSYM    DATA     BYTE      UT_DR
      000000C8H.3 SFRSYM    DATA     BIT       PTIM31
      000000C8H.6 SFRSYM    DATA     BIT       PTIM40
      000000C8H.7 SFRSYM    DATA     BIT       PTIM41
      000000D0H.2 SFRSYM    DATA     BIT       OV
      0000009AH   SFRSYM    DATA     WORD      UT_BAUD
      000000D8H.4 SFRSYM    DATA     BIT       PSPI_UT20
      000000D8H.5 SFRSYM    DATA     BIT       PSPI_UT21
      000000C8H.4 SFRSYM    DATA     BIT       PSYSTICK0
      000000C8H.5 SFRSYM    DATA     BIT       PSYSTICK1
      00000087H   SFRSYM    DATA     BYTE      PCON
      00000088H   SFRSYM    DATA     BYTE      TCON
      00000082H   SFRSYM    DATA     WORD      DPTR
      00000088H.2 SFRSYM    DATA     BIT       IF0
      000000AEH   SFRSYM    DATA     WORD      TIM2__ARR
      000000A1H   SFRSYM    DATA     BYTE      TIM2_CR0
      000000A6H   SFRSYM    DATA     WORD      TIM3__ARR
      0000009CH   SFRSYM    DATA     BYTE      TIM3_CR0
      000000A9H   SFRSYM    DATA     BYTE      TIM2_CR1
      00000096H   SFRSYM    DATA     WORD      TIM4__ARR
      0000009EH   SFRSYM    DATA     BYTE      TIM4_CR0
      0000009DH   SFRSYM    DATA     BYTE      TIM3_CR1
      000000F8H   SFRSYM    DATA     BYTE      DRV_OUT
      0000009FH   SFRSYM    DATA     BYTE      TIM4_CR1
      000000E0H   SFRSYM    DATA     BYTE      ACC
      000000DBH   SFRSYM    DATA     BYTE      LVSR
      000000A8H.4 SFRSYM    DATA     BIT       ES0
      00000085H   SFRSYM    DATA     BYTE      FLA_CR
      000000C0H.4 SFRSYM    DATA     BIT       PADC0
      000000B8H   SFRSYM    DATA     BYTE      IP0
      000000C0H.5 SFRSYM    DATA     BIT       PADC1
      000000C0H   SFRSYM    DATA     BYTE      IP1
      000000C8H   SFRSYM    DATA     BYTE      IP2
      00000098H.2 SFRSYM    DATA     BIT       RB8
      000000D8H   SFRSYM    DATA     BYTE      IP3
      000000A8H   SFRSYM    DATA     BIT       EX0
      00000098H.3 SFRSYM    DATA     BIT       TB8
      000000A8H.2 SFRSYM    DATA     BIT       EX1
      000000D0H   SFRSYM    DATA     BIT       P
      0000008AH   SFRSYM    DATA     BYTE      UT2_CR
      00000089H   SFRSYM    DATA     BYTE      UT2_DR
      00000098H.5 SFRSYM    DATA     BIT       SM2
      000000D8H.6 SFRSYM    DATA     BIT       PDMA0
LX51 LINKER/LOCATER V4.66.30.0                                                        04/09/2024  13:54:58  PAGE 107


      000000D8H.7 SFRSYM    DATA     BIT       PDMA1
      000000D0H.3 SFRSYM    DATA     BIT       RS0
      000000D0H.4 SFRSYM    DATA     BIT       RS1
      000000CAH   SFRSYM    DATA     BYTE      MDU_MD
      000000C1H   SFRSYM    DATA     BYTE      MDU_CR
      000000F8H.7 SFRSYM    DATA     BIT       MOE
      000000C0H.6 SFRSYM    DATA     BIT       PCMP0
      000000C0H.7 SFRSYM    DATA     BIT       PCMP1
      00000098H.4 SFRSYM    DATA     BIT       REN
      000000D7H   SFRSYM    DATA     BYTE      CMP_SR
      000000C8H   SFRSYM    DATA     BIT       PRTC0
      000000C8H.1 SFRSYM    DATA     BIT       PRTC1
      000000B8H.6 SFRSYM    DATA     BIT       PDRV0
      000000B8H.7 SFRSYM    DATA     BIT       PDRV1
      000000D1H   SFRSYM    DATA     BYTE      P1_IE
      000000D3H   SFRSYM    DATA     BYTE      P2_IE
      000000D2H   SFRSYM    DATA     BYTE      P1_IF
      000000D4H   SFRSYM    DATA     BYTE      P2_IF
      000000ACH   SFRSYM    DATA     WORD      TIM2__DR
      000000FCH   SFRSYM    DATA     BYTE      P0_OE
      000000A4H   SFRSYM    DATA     WORD      TIM3__DR
      000000FDH   SFRSYM    DATA     BYTE      P1_OE
      00000094H   SFRSYM    DATA     WORD      TIM4__DR
      000000D0H.5 SFRSYM    DATA     BIT       F0
      000000FEH   SFRSYM    DATA     BYTE      P2_OE
      000000D0H.1 SFRSYM    DATA     BIT       F1
      000000FFH   SFRSYM    DATA     BYTE      P3_OE
      00000080H   SFRSYM    DATA     BIT       GP00
      000000E9H   SFRSYM    DATA     BYTE      P4_OE
      00000090H   SFRSYM    DATA     BIT       GP10
      00000080H.1 SFRSYM    DATA     BIT       GP01
      000000A8H.6 SFRSYM    DATA     BIT       RTCIE
      000000A0H   SFRSYM    DATA     BIT       GP20
      00000090H.1 SFRSYM    DATA     BIT       GP11
      00000080H.2 SFRSYM    DATA     BIT       GP02
      000000B0H   SFRSYM    DATA     BIT       GP30
      000000A0H.1 SFRSYM    DATA     BIT       GP21
      00000090H.2 SFRSYM    DATA     BIT       GP12
      00000080H.3 SFRSYM    DATA     BIT       GP03
      000000D8H.2 SFRSYM    DATA     BIT       PI2C_UT10
      000000B8H   SFRSYM    DATA     BIT       PLVW0
      000000A8H.1 SFRSYM    DATA     BIT       TSDIE
      000000D0H   SFRSYM    DATA     BYTE      PSW
      000000B0H.1 SFRSYM    DATA     BIT       GP31
      000000A0H.2 SFRSYM    DATA     BIT       GP22
      00000090H.3 SFRSYM    DATA     BIT       GP13
      00000080H.4 SFRSYM    DATA     BIT       GP04
      000000D8H.3 SFRSYM    DATA     BIT       PI2C_UT11
      000000B8H.1 SFRSYM    DATA     BIT       PLVW1
      000000A8H.3 SFRSYM    DATA     BIT       SPIIE
      00000088H.5 SFRSYM    DATA     BIT       TSDIF
      000000B0H.2 SFRSYM    DATA     BIT       GP32
      000000A0H.3 SFRSYM    DATA     BIT       GP23
      00000090H.4 SFRSYM    DATA     BIT       GP14
      00000080H.5 SFRSYM    DATA     BIT       GP05
      000000E8H.2 SFRSYM    DATA     BIT       GP42
      000000B0H.3 SFRSYM    DATA     BIT       GP33
      000000A0H.4 SFRSYM    DATA     BIT       GP24
      00000090H.5 SFRSYM    DATA     BIT       GP15
      00000080H.6 SFRSYM    DATA     BIT       GP06
      00000088H   SFRSYM    DATA     BIT       IT00

      ---         MODULE    ---      ---       TIMER
      010028F4H   PUBLIC    CODE     ---       TIM4_Initial
      0100301AH   PUBLIC    CODE     ---       sysTick_Initial
LX51 LINKER/LOCATER V4.66.30.0                                                        04/09/2024  13:54:58  PAGE 108


      000000E8H.3 SFRSYM    DATA     BIT       GP43
      000000B0H.4 SFRSYM    DATA     BIT       GP34
      000000A0H.5 SFRSYM    DATA     BIT       GP25
      00000090H.6 SFRSYM    DATA     BIT       GP16
      00000080H.7 SFRSYM    DATA     BIT       GP07
      00000088H.1 SFRSYM    DATA     BIT       IT01
      00000088H.3 SFRSYM    DATA     BIT       IT10
      000000E8H.4 SFRSYM    DATA     BIT       GP44
      000000B0H.5 SFRSYM    DATA     BIT       GP35
      000000A0H.6 SFRSYM    DATA     BIT       GP26
      00000090H.7 SFRSYM    DATA     BIT       GP17
      00000080H   SFRSYM    DATA     BYTE      P0
      00000088H.4 SFRSYM    DATA     BIT       IT11
      000000C9H   SFRSYM    DATA     BYTE      RST_SR
      000000D9H   SFRSYM    DATA     BYTE      EVT_FILT
      000000E8H.5 SFRSYM    DATA     BIT       GP45
      000000B0H.6 SFRSYM    DATA     BIT       GP36
      000000A0H.7 SFRSYM    DATA     BIT       GP27
      00000090H   SFRSYM    DATA     BYTE      P1
      000000B0H.7 SFRSYM    DATA     BIT       GP37
      000000A0H   SFRSYM    DATA     BYTE      P2
      000000B0H   SFRSYM    DATA     BYTE      P3
      000000E8H   SFRSYM    DATA     BYTE      P4
      000000D0H.6 SFRSYM    DATA     BIT       AC
      000000A8H.7 SFRSYM    DATA     BIT       EA
      000000D5H   SFRSYM    DATA     BYTE      CMP_CR0
      000000D6H   SFRSYM    DATA     BYTE      CMP_CR1
      000000C6H   SFRSYM    DATA     WORD      MDU_A
      000000DAH   SFRSYM    DATA     BYTE      CMP_CR2
      000000C4H   SFRSYM    DATA     WORD      MDU_B
      000000B8H.2 SFRSYM    DATA     BIT       PX00
      000000DCH   SFRSYM    DATA     BYTE      CMP_CR3
      000000F8H   SFRSYM    DATA     BIT       OISUH
      000000C2H   SFRSYM    DATA     WORD      MDU_C
      000000B8H.3 SFRSYM    DATA     BIT       PX01
      000000B8H.4 SFRSYM    DATA     BIT       PX10
      000000E1H   SFRSYM    DATA     BYTE      CMP_CR4
      000000F8H.2 SFRSYM    DATA     BIT       OISVH
      000000CBH   SFRSYM    DATA     BYTE      MDU_D
      000000B8H.5 SFRSYM    DATA     BIT       PX11
      000000F8H.4 SFRSYM    DATA     BIT       OISWH
      000000F8H.1 SFRSYM    DATA     BIT       OISUL
      000000A8H   SFRSYM    DATA     BYTE      IE
      000000F8H.3 SFRSYM    DATA     BIT       OISVL
      000000F9H   SFRSYM    DATA     BYTE      PI_CR
      000000F8H.5 SFRSYM    DATA     BIT       OISWL
      000000D8H   SFRSYM    DATA     BIT       PCMP30
      000000AAH   SFRSYM    DATA     WORD      TIM2__CNTR
      000000D8H.1 SFRSYM    DATA     BIT       PCMP31
      000000A2H   SFRSYM    DATA     WORD      TIM3__CNTR
      00000092H   SFRSYM    DATA     WORD      TIM4__CNTR
      00000098H   SFRSYM    DATA     BIT       RI
      00000098H.6 SFRSYM    DATA     BIT       UT_MOD0
      00000098H.7 SFRSYM    DATA     BIT       UT_MOD1
      000000D0H.7 SFRSYM    DATA     BIT       CY
      00000098H.1 SFRSYM    DATA     BIT       TI
      000000C0H.2 SFRSYM    DATA     BIT       PTIM10
      00000084H   SFRSYM    DATA     BYTE      FLA_KEY
      000000C0H   SFRSYM    DATA     BIT       PTIM20
      000000C0H.3 SFRSYM    DATA     BIT       PTIM11
      00000098H   SFRSYM    DATA     BYTE      UT_CR
      000000C8H.2 SFRSYM    DATA     BIT       PTIM30
      000000C0H.1 SFRSYM    DATA     BIT       PTIM21
      00000099H   SFRSYM    DATA     BYTE      UT_DR
      000000C8H.3 SFRSYM    DATA     BIT       PTIM31
LX51 LINKER/LOCATER V4.66.30.0                                                        04/09/2024  13:54:58  PAGE 109


      000000C8H.6 SFRSYM    DATA     BIT       PTIM40
      000000C8H.7 SFRSYM    DATA     BIT       PTIM41
      000000D0H.2 SFRSYM    DATA     BIT       OV
      0000009AH   SFRSYM    DATA     WORD      UT_BAUD
      000000D8H.4 SFRSYM    DATA     BIT       PSPI_UT20
      000000D8H.5 SFRSYM    DATA     BIT       PSPI_UT21
      000000C8H.4 SFRSYM    DATA     BIT       PSYSTICK0
      000000C8H.5 SFRSYM    DATA     BIT       PSYSTICK1
      00000087H   SFRSYM    DATA     BYTE      PCON
      00000088H   SFRSYM    DATA     BYTE      TCON
      00000082H   SFRSYM    DATA     WORD      DPTR
      00000088H.2 SFRSYM    DATA     BIT       IF0
      000000AEH   SFRSYM    DATA     WORD      TIM2__ARR
      000000A1H   SFRSYM    DATA     BYTE      TIM2_CR0
      000000A6H   SFRSYM    DATA     WORD      TIM3__ARR
      0000009CH   SFRSYM    DATA     BYTE      TIM3_CR0
      000000A9H   SFRSYM    DATA     BYTE      TIM2_CR1
      00000096H   SFRSYM    DATA     WORD      TIM4__ARR
      0000009EH   SFRSYM    DATA     BYTE      TIM4_CR0
      0000009DH   SFRSYM    DATA     BYTE      TIM3_CR1
      000000F8H   SFRSYM    DATA     BYTE      DRV_OUT
      0000009FH   SFRSYM    DATA     BYTE      TIM4_CR1
      000000E0H   SFRSYM    DATA     BYTE      ACC
      000000DBH   SFRSYM    DATA     BYTE      LVSR
      000000A8H.4 SFRSYM    DATA     BIT       ES0
      00000085H   SFRSYM    DATA     BYTE      FLA_CR
      000000C0H.4 SFRSYM    DATA     BIT       PADC0
      000000B8H   SFRSYM    DATA     BYTE      IP0
      000000C0H.5 SFRSYM    DATA     BIT       PADC1
      000000C0H   SFRSYM    DATA     BYTE      IP1
      000000C8H   SFRSYM    DATA     BYTE      IP2
      00000098H.2 SFRSYM    DATA     BIT       RB8
      000000D8H   SFRSYM    DATA     BYTE      IP3
      000000A8H   SFRSYM    DATA     BIT       EX0
      00000098H.3 SFRSYM    DATA     BIT       TB8
      000000A8H.2 SFRSYM    DATA     BIT       EX1
      000000D0H   SFRSYM    DATA     BIT       P
      0000008AH   SFRSYM    DATA     BYTE      UT2_CR
      00000089H   SFRSYM    DATA     BYTE      UT2_DR
      00000098H.5 SFRSYM    DATA     BIT       SM2
      000000D8H.6 SFRSYM    DATA     BIT       PDMA0
      000000D8H.7 SFRSYM    DATA     BIT       PDMA1
      000000D0H.3 SFRSYM    DATA     BIT       RS0
      000000D0H.4 SFRSYM    DATA     BIT       RS1
      000000CAH   SFRSYM    DATA     BYTE      MDU_MD
      000000C1H   SFRSYM    DATA     BYTE      MDU_CR
      000000F8H.7 SFRSYM    DATA     BIT       MOE
      000000C0H.6 SFRSYM    DATA     BIT       PCMP0
      000000C0H.7 SFRSYM    DATA     BIT       PCMP1
      00000098H.4 SFRSYM    DATA     BIT       REN
      000000D7H   SFRSYM    DATA     BYTE      CMP_SR
      000000C8H   SFRSYM    DATA     BIT       PRTC0
      000000C8H.1 SFRSYM    DATA     BIT       PRTC1
      000000B8H.6 SFRSYM    DATA     BIT       PDRV0
      000000B8H.7 SFRSYM    DATA     BIT       PDRV1
      000000D1H   SFRSYM    DATA     BYTE      P1_IE
      000000D3H   SFRSYM    DATA     BYTE      P2_IE
      000000D2H   SFRSYM    DATA     BYTE      P1_IF
      000000D4H   SFRSYM    DATA     BYTE      P2_IF
      000000ACH   SFRSYM    DATA     WORD      TIM2__DR
      000000FCH   SFRSYM    DATA     BYTE      P0_OE
      000000A4H   SFRSYM    DATA     WORD      TIM3__DR
      000000FDH   SFRSYM    DATA     BYTE      P1_OE
      00000094H   SFRSYM    DATA     WORD      TIM4__DR
      000000D0H.5 SFRSYM    DATA     BIT       F0
LX51 LINKER/LOCATER V4.66.30.0                                                        04/09/2024  13:54:58  PAGE 110


      000000FEH   SFRSYM    DATA     BYTE      P2_OE
      000000D0H.1 SFRSYM    DATA     BIT       F1
      000000FFH   SFRSYM    DATA     BYTE      P3_OE
      00000080H   SFRSYM    DATA     BIT       GP00
      000000E9H   SFRSYM    DATA     BYTE      P4_OE
      00000090H   SFRSYM    DATA     BIT       GP10
      00000080H.1 SFRSYM    DATA     BIT       GP01
      000000A8H.6 SFRSYM    DATA     BIT       RTCIE
      000000A0H   SFRSYM    DATA     BIT       GP20
      00000090H.1 SFRSYM    DATA     BIT       GP11
      00000080H.2 SFRSYM    DATA     BIT       GP02
      000000B0H   SFRSYM    DATA     BIT       GP30
      000000A0H.1 SFRSYM    DATA     BIT       GP21
      00000090H.2 SFRSYM    DATA     BIT       GP12
      00000080H.3 SFRSYM    DATA     BIT       GP03
      000000D8H.2 SFRSYM    DATA     BIT       PI2C_UT10
      000000B8H   SFRSYM    DATA     BIT       PLVW0
      000000A8H.1 SFRSYM    DATA     BIT       TSDIE
      000000D0H   SFRSYM    DATA     BYTE      PSW
      000000B0H.1 SFRSYM    DATA     BIT       GP31
      000000A0H.2 SFRSYM    DATA     BIT       GP22
      00000090H.3 SFRSYM    DATA     BIT       GP13
      00000080H.4 SFRSYM    DATA     BIT       GP04
      000000D8H.3 SFRSYM    DATA     BIT       PI2C_UT11
      000000B8H.1 SFRSYM    DATA     BIT       PLVW1
      000000A8H.3 SFRSYM    DATA     BIT       SPIIE
      00000088H.5 SFRSYM    DATA     BIT       TSDIF
      000000B0H.2 SFRSYM    DATA     BIT       GP32
      000000A0H.3 SFRSYM    DATA     BIT       GP23
      00000090H.4 SFRSYM    DATA     BIT       GP14
      00000080H.5 SFRSYM    DATA     BIT       GP05
      000000E8H.2 SFRSYM    DATA     BIT       GP42
      000000B0H.3 SFRSYM    DATA     BIT       GP33
      000000A0H.4 SFRSYM    DATA     BIT       GP24
      00000090H.5 SFRSYM    DATA     BIT       GP15
      00000080H.6 SFRSYM    DATA     BIT       GP06
      00000088H   SFRSYM    DATA     BIT       IT00

      0100301AH   BLOCK     CODE     ---       LVL=0
      0100301AH   LINE      CODE     ---       #91
      0100301AH   LINE      CODE     ---       #92
      0100301AH   LINE      CODE     ---       #93
      0100302BH   LINE      CODE     ---       #94
      01003034H   LINE      CODE     ---       #95
      ---         BLOCKEND  ---      ---       LVL=0

      010028F4H   BLOCK     CODE     ---       LVL=0
      010028F4H   LINE      CODE     ---       #104
      010028F4H   LINE      CODE     ---       #105
      010028F4H   LINE      CODE     ---       #106
      010028FBH   LINE      CODE     ---       #107
      010028FEH   LINE      CODE     ---       #109
      01002906H   LINE      CODE     ---       #110
      01002909H   LINE      CODE     ---       #111
      0100290CH   LINE      CODE     ---       #112
      01002914H   LINE      CODE     ---       #113
      0100291CH   LINE      CODE     ---       #114
      01002928H   LINE      CODE     ---       #115
      0100292BH   LINE      CODE     ---       #116
      01002932H   LINE      CODE     ---       #118
      01002938H   LINE      CODE     ---       #119
      0100293EH   LINE      CODE     ---       #120
      01002945H   LINE      CODE     ---       #122
      01002957H   LINE      CODE     ---       #125
      0100295AH   LINE      CODE     ---       #126
LX51 LINKER/LOCATER V4.66.30.0                                                        04/09/2024  13:54:58  PAGE 111


      ---         BLOCKEND  ---      ---       LVL=0

      ---         MODULE    ---      ---       UART
      020001ADH   PUBLIC    XDATA    ---       UART1
      020001ACH   PUBLIC    XDATA    BYTE      __U1Tx_Position
      000000E8H.3 SFRSYM    DATA     BIT       GP43
      000000B0H.4 SFRSYM    DATA     BIT       GP34
      000000A0H.5 SFRSYM    DATA     BIT       GP25
      00000090H.6 SFRSYM    DATA     BIT       GP16
      00000080H.7 SFRSYM    DATA     BIT       GP07
      00000088H.1 SFRSYM    DATA     BIT       IT01
      00000088H.3 SFRSYM    DATA     BIT       IT10
      000000E8H.4 SFRSYM    DATA     BIT       GP44
      000000B0H.5 SFRSYM    DATA     BIT       GP35
      000000A0H.6 SFRSYM    DATA     BIT       GP26
      00000090H.7 SFRSYM    DATA     BIT       GP17
      00000080H   SFRSYM    DATA     BYTE      P0
      00000088H.4 SFRSYM    DATA     BIT       IT11
      000000C9H   SFRSYM    DATA     BYTE      RST_SR
      000000D9H   SFRSYM    DATA     BYTE      EVT_FILT
      000000E8H.5 SFRSYM    DATA     BIT       GP45
      000000B0H.6 SFRSYM    DATA     BIT       GP36
      000000A0H.7 SFRSYM    DATA     BIT       GP27
      00000090H   SFRSYM    DATA     BYTE      P1
      000000B0H.7 SFRSYM    DATA     BIT       GP37
      000000A0H   SFRSYM    DATA     BYTE      P2
      000000B0H   SFRSYM    DATA     BYTE      P3
      000000E8H   SFRSYM    DATA     BYTE      P4
      000000D0H.6 SFRSYM    DATA     BIT       AC
      000000A8H.7 SFRSYM    DATA     BIT       EA
      000000D5H   SFRSYM    DATA     BYTE      CMP_CR0
      000000D6H   SFRSYM    DATA     BYTE      CMP_CR1
      000000C6H   SFRSYM    DATA     WORD      MDU_A
      000000DAH   SFRSYM    DATA     BYTE      CMP_CR2
      000000C4H   SFRSYM    DATA     WORD      MDU_B
      000000B8H.2 SFRSYM    DATA     BIT       PX00
      000000DCH   SFRSYM    DATA     BYTE      CMP_CR3
      000000F8H   SFRSYM    DATA     BIT       OISUH
      000000C2H   SFRSYM    DATA     WORD      MDU_C
      000000B8H.3 SFRSYM    DATA     BIT       PX01
      000000B8H.4 SFRSYM    DATA     BIT       PX10
      000000E1H   SFRSYM    DATA     BYTE      CMP_CR4
      000000F8H.2 SFRSYM    DATA     BIT       OISVH
      000000CBH   SFRSYM    DATA     BYTE      MDU_D
      000000B8H.5 SFRSYM    DATA     BIT       PX11
      000000F8H.4 SFRSYM    DATA     BIT       OISWH
      000000F8H.1 SFRSYM    DATA     BIT       OISUL
      000000A8H   SFRSYM    DATA     BYTE      IE
      000000F8H.3 SFRSYM    DATA     BIT       OISVL
      000000F9H   SFRSYM    DATA     BYTE      PI_CR
      000000F8H.5 SFRSYM    DATA     BIT       OISWL
      000000D8H   SFRSYM    DATA     BIT       PCMP30
      000000AAH   SFRSYM    DATA     WORD      TIM2__CNTR
      000000D8H.1 SFRSYM    DATA     BIT       PCMP31
      000000A2H   SFRSYM    DATA     WORD      TIM3__CNTR
      00000092H   SFRSYM    DATA     WORD      TIM4__CNTR
      00000098H   SFRSYM    DATA     BIT       RI
      00000098H.6 SFRSYM    DATA     BIT       UT_MOD0
      00000098H.7 SFRSYM    DATA     BIT       UT_MOD1
      000000D0H.7 SFRSYM    DATA     BIT       CY
      00000098H.1 SFRSYM    DATA     BIT       TI
      000000C0H.2 SFRSYM    DATA     BIT       PTIM10
      00000084H   SFRSYM    DATA     BYTE      FLA_KEY
      000000C0H   SFRSYM    DATA     BIT       PTIM20
      000000C0H.3 SFRSYM    DATA     BIT       PTIM11
LX51 LINKER/LOCATER V4.66.30.0                                                        04/09/2024  13:54:58  PAGE 112


      00000098H   SFRSYM    DATA     BYTE      UT_CR
      000000C8H.2 SFRSYM    DATA     BIT       PTIM30
      000000C0H.1 SFRSYM    DATA     BIT       PTIM21
      00000099H   SFRSYM    DATA     BYTE      UT_DR
      000000C8H.3 SFRSYM    DATA     BIT       PTIM31
      000000C8H.6 SFRSYM    DATA     BIT       PTIM40
      000000C8H.7 SFRSYM    DATA     BIT       PTIM41
      000000D0H.2 SFRSYM    DATA     BIT       OV
      0000009AH   SFRSYM    DATA     WORD      UT_BAUD
      000000D8H.4 SFRSYM    DATA     BIT       PSPI_UT20
      000000D8H.5 SFRSYM    DATA     BIT       PSPI_UT21
      000000C8H.4 SFRSYM    DATA     BIT       PSYSTICK0
      000000C8H.5 SFRSYM    DATA     BIT       PSYSTICK1
      00000087H   SFRSYM    DATA     BYTE      PCON
      00000088H   SFRSYM    DATA     BYTE      TCON
      00000082H   SFRSYM    DATA     WORD      DPTR
      00000088H.2 SFRSYM    DATA     BIT       IF0
      000000AEH   SFRSYM    DATA     WORD      TIM2__ARR
      000000A1H   SFRSYM    DATA     BYTE      TIM2_CR0
      000000A6H   SFRSYM    DATA     WORD      TIM3__ARR
      0000009CH   SFRSYM    DATA     BYTE      TIM3_CR0
      000000A9H   SFRSYM    DATA     BYTE      TIM2_CR1
      00000096H   SFRSYM    DATA     WORD      TIM4__ARR
      0000009EH   SFRSYM    DATA     BYTE      TIM4_CR0
      0000009DH   SFRSYM    DATA     BYTE      TIM3_CR1
      000000F8H   SFRSYM    DATA     BYTE      DRV_OUT
      0000009FH   SFRSYM    DATA     BYTE      TIM4_CR1
      000000E0H   SFRSYM    DATA     BYTE      ACC
      000000DBH   SFRSYM    DATA     BYTE      LVSR
      000000A8H.4 SFRSYM    DATA     BIT       ES0
      00000085H   SFRSYM    DATA     BYTE      FLA_CR
      000000C0H.4 SFRSYM    DATA     BIT       PADC0
      000000B8H   SFRSYM    DATA     BYTE      IP0
      000000C0H.5 SFRSYM    DATA     BIT       PADC1
      000000C0H   SFRSYM    DATA     BYTE      IP1
      000000C8H   SFRSYM    DATA     BYTE      IP2
      00000098H.2 SFRSYM    DATA     BIT       RB8
      000000D8H   SFRSYM    DATA     BYTE      IP3
      000000A8H   SFRSYM    DATA     BIT       EX0
      00000098H.3 SFRSYM    DATA     BIT       TB8
      000000A8H.2 SFRSYM    DATA     BIT       EX1
      000000D0H   SFRSYM    DATA     BIT       P
      0000008AH   SFRSYM    DATA     BYTE      UT2_CR
      00000089H   SFRSYM    DATA     BYTE      UT2_DR
      00000098H.5 SFRSYM    DATA     BIT       SM2
      000000D8H.6 SFRSYM    DATA     BIT       PDMA0
      000000D8H.7 SFRSYM    DATA     BIT       PDMA1
      000000D0H.3 SFRSYM    DATA     BIT       RS0
      000000D0H.4 SFRSYM    DATA     BIT       RS1
      000000CAH   SFRSYM    DATA     BYTE      MDU_MD
      000000C1H   SFRSYM    DATA     BYTE      MDU_CR
      000000F8H.7 SFRSYM    DATA     BIT       MOE
      000000C0H.6 SFRSYM    DATA     BIT       PCMP0
      000000C0H.7 SFRSYM    DATA     BIT       PCMP1
      00000098H.4 SFRSYM    DATA     BIT       REN
      000000D7H   SFRSYM    DATA     BYTE      CMP_SR
      000000C8H   SFRSYM    DATA     BIT       PRTC0
      000000C8H.1 SFRSYM    DATA     BIT       PRTC1
      000000B8H.6 SFRSYM    DATA     BIT       PDRV0
      000000B8H.7 SFRSYM    DATA     BIT       PDRV1
      000000D1H   SFRSYM    DATA     BYTE      P1_IE
      000000D3H   SFRSYM    DATA     BYTE      P2_IE
      000000D2H   SFRSYM    DATA     BYTE      P1_IF
      000000D4H   SFRSYM    DATA     BYTE      P2_IF
      000000ACH   SFRSYM    DATA     WORD      TIM2__DR
LX51 LINKER/LOCATER V4.66.30.0                                                        04/09/2024  13:54:58  PAGE 113


      000000FCH   SFRSYM    DATA     BYTE      P0_OE
      000000A4H   SFRSYM    DATA     WORD      TIM3__DR
      000000FDH   SFRSYM    DATA     BYTE      P1_OE
      00000094H   SFRSYM    DATA     WORD      TIM4__DR
      000000D0H.5 SFRSYM    DATA     BIT       F0
      000000FEH   SFRSYM    DATA     BYTE      P2_OE
      000000D0H.1 SFRSYM    DATA     BIT       F1
      000000FFH   SFRSYM    DATA     BYTE      P3_OE
      00000080H   SFRSYM    DATA     BIT       GP00
      000000E9H   SFRSYM    DATA     BYTE      P4_OE
      00000090H   SFRSYM    DATA     BIT       GP10
      00000080H.1 SFRSYM    DATA     BIT       GP01
      000000A8H.6 SFRSYM    DATA     BIT       RTCIE
      000000A0H   SFRSYM    DATA     BIT       GP20
      00000090H.1 SFRSYM    DATA     BIT       GP11
      00000080H.2 SFRSYM    DATA     BIT       GP02
      000000B0H   SFRSYM    DATA     BIT       GP30
      000000A0H.1 SFRSYM    DATA     BIT       GP21
      00000090H.2 SFRSYM    DATA     BIT       GP12
      00000080H.3 SFRSYM    DATA     BIT       GP03
      000000D8H.2 SFRSYM    DATA     BIT       PI2C_UT10
      000000B8H   SFRSYM    DATA     BIT       PLVW0
      000000A8H.1 SFRSYM    DATA     BIT       TSDIE
      000000D0H   SFRSYM    DATA     BYTE      PSW
      000000B0H.1 SFRSYM    DATA     BIT       GP31
      000000A0H.2 SFRSYM    DATA     BIT       GP22
      00000090H.3 SFRSYM    DATA     BIT       GP13
      00000080H.4 SFRSYM    DATA     BIT       GP04
      000000D8H.3 SFRSYM    DATA     BIT       PI2C_UT11
      000000B8H.1 SFRSYM    DATA     BIT       PLVW1
      000000A8H.3 SFRSYM    DATA     BIT       SPIIE
      00000088H.5 SFRSYM    DATA     BIT       TSDIF
      000000B0H.2 SFRSYM    DATA     BIT       GP32
      000000A0H.3 SFRSYM    DATA     BIT       GP23
      00000090H.4 SFRSYM    DATA     BIT       GP14
      00000080H.5 SFRSYM    DATA     BIT       GP05
      000000E8H.2 SFRSYM    DATA     BIT       GP42
      000000B0H.3 SFRSYM    DATA     BIT       GP33
      000000A0H.4 SFRSYM    DATA     BIT       GP24
      00000090H.5 SFRSYM    DATA     BIT       GP15
      00000080H.6 SFRSYM    DATA     BIT       GP06
      00000088H   SFRSYM    DATA     BIT       IT00
      00000001H   SYMBOL    DATA     ---       Arr
      00000005H   SYMBOL    DATA     BYTE      Len

      ---         MODULE    ---      ---       PID
      01002C77H   PUBLIC    CODE     ---       PI_Init
      000000E8H.3 SFRSYM    DATA     BIT       GP43
      000000B0H.4 SFRSYM    DATA     BIT       GP34
      000000A0H.5 SFRSYM    DATA     BIT       GP25
      00000090H.6 SFRSYM    DATA     BIT       GP16
      00000080H.7 SFRSYM    DATA     BIT       GP07
      00000088H.1 SFRSYM    DATA     BIT       IT01
      00000088H.3 SFRSYM    DATA     BIT       IT10
      000000E8H.4 SFRSYM    DATA     BIT       GP44
      000000B0H.5 SFRSYM    DATA     BIT       GP35
      000000A0H.6 SFRSYM    DATA     BIT       GP26
      00000090H.7 SFRSYM    DATA     BIT       GP17
      00000080H   SFRSYM    DATA     BYTE      P0
      00000088H.4 SFRSYM    DATA     BIT       IT11
      000000C9H   SFRSYM    DATA     BYTE      RST_SR
      000000D9H   SFRSYM    DATA     BYTE      EVT_FILT
      000000E8H.5 SFRSYM    DATA     BIT       GP45
      000000B0H.6 SFRSYM    DATA     BIT       GP36
      000000A0H.7 SFRSYM    DATA     BIT       GP27
LX51 LINKER/LOCATER V4.66.30.0                                                        04/09/2024  13:54:58  PAGE 114


      00000090H   SFRSYM    DATA     BYTE      P1
      000000B0H.7 SFRSYM    DATA     BIT       GP37
      000000A0H   SFRSYM    DATA     BYTE      P2
      000000B0H   SFRSYM    DATA     BYTE      P3
      000000E8H   SFRSYM    DATA     BYTE      P4
      000000D0H.6 SFRSYM    DATA     BIT       AC
      000000A8H.7 SFRSYM    DATA     BIT       EA
      000000D5H   SFRSYM    DATA     BYTE      CMP_CR0
      000000D6H   SFRSYM    DATA     BYTE      CMP_CR1
      000000C6H   SFRSYM    DATA     WORD      MDU_A
      000000DAH   SFRSYM    DATA     BYTE      CMP_CR2
      000000C4H   SFRSYM    DATA     WORD      MDU_B
      000000B8H.2 SFRSYM    DATA     BIT       PX00
      000000DCH   SFRSYM    DATA     BYTE      CMP_CR3
      000000F8H   SFRSYM    DATA     BIT       OISUH
      000000C2H   SFRSYM    DATA     WORD      MDU_C
      000000B8H.3 SFRSYM    DATA     BIT       PX01
      000000B8H.4 SFRSYM    DATA     BIT       PX10
      000000E1H   SFRSYM    DATA     BYTE      CMP_CR4
      000000F8H.2 SFRSYM    DATA     BIT       OISVH
      000000CBH   SFRSYM    DATA     BYTE      MDU_D
      000000B8H.5 SFRSYM    DATA     BIT       PX11
      000000F8H.4 SFRSYM    DATA     BIT       OISWH
      000000F8H.1 SFRSYM    DATA     BIT       OISUL
      000000A8H   SFRSYM    DATA     BYTE      IE
      000000F8H.3 SFRSYM    DATA     BIT       OISVL
      000000F9H   SFRSYM    DATA     BYTE      PI_CR
      000000F8H.5 SFRSYM    DATA     BIT       OISWL
      000000D8H   SFRSYM    DATA     BIT       PCMP30
      000000AAH   SFRSYM    DATA     WORD      TIM2__CNTR
      000000D8H.1 SFRSYM    DATA     BIT       PCMP31
      000000A2H   SFRSYM    DATA     WORD      TIM3__CNTR
      00000092H   SFRSYM    DATA     WORD      TIM4__CNTR
      00000098H   SFRSYM    DATA     BIT       RI
      00000098H.6 SFRSYM    DATA     BIT       UT_MOD0
      00000098H.7 SFRSYM    DATA     BIT       UT_MOD1
      000000D0H.7 SFRSYM    DATA     BIT       CY
      00000098H.1 SFRSYM    DATA     BIT       TI
      000000C0H.2 SFRSYM    DATA     BIT       PTIM10
      00000084H   SFRSYM    DATA     BYTE      FLA_KEY
      000000C0H   SFRSYM    DATA     BIT       PTIM20
      000000C0H.3 SFRSYM    DATA     BIT       PTIM11
      00000098H   SFRSYM    DATA     BYTE      UT_CR
      000000C8H.2 SFRSYM    DATA     BIT       PTIM30
      000000C0H.1 SFRSYM    DATA     BIT       PTIM21
      00000099H   SFRSYM    DATA     BYTE      UT_DR
      000000C8H.3 SFRSYM    DATA     BIT       PTIM31
      000000C8H.6 SFRSYM    DATA     BIT       PTIM40
      000000C8H.7 SFRSYM    DATA     BIT       PTIM41
      000000D0H.2 SFRSYM    DATA     BIT       OV
      0000009AH   SFRSYM    DATA     WORD      UT_BAUD
      000000D8H.4 SFRSYM    DATA     BIT       PSPI_UT20
      000000D8H.5 SFRSYM    DATA     BIT       PSPI_UT21
      000000C8H.4 SFRSYM    DATA     BIT       PSYSTICK0
      000000C8H.5 SFRSYM    DATA     BIT       PSYSTICK1
      00000087H   SFRSYM    DATA     BYTE      PCON
      00000088H   SFRSYM    DATA     BYTE      TCON
      00000082H   SFRSYM    DATA     WORD      DPTR
      00000088H.2 SFRSYM    DATA     BIT       IF0
      000000AEH   SFRSYM    DATA     WORD      TIM2__ARR
      000000A1H   SFRSYM    DATA     BYTE      TIM2_CR0
      000000A6H   SFRSYM    DATA     WORD      TIM3__ARR
      0000009CH   SFRSYM    DATA     BYTE      TIM3_CR0
      000000A9H   SFRSYM    DATA     BYTE      TIM2_CR1
      00000096H   SFRSYM    DATA     WORD      TIM4__ARR
LX51 LINKER/LOCATER V4.66.30.0                                                        04/09/2024  13:54:58  PAGE 115


      0000009EH   SFRSYM    DATA     BYTE      TIM4_CR0
      0000009DH   SFRSYM    DATA     BYTE      TIM3_CR1
      000000F8H   SFRSYM    DATA     BYTE      DRV_OUT
      0000009FH   SFRSYM    DATA     BYTE      TIM4_CR1
      000000E0H   SFRSYM    DATA     BYTE      ACC
      000000DBH   SFRSYM    DATA     BYTE      LVSR
      000000A8H.4 SFRSYM    DATA     BIT       ES0
      00000085H   SFRSYM    DATA     BYTE      FLA_CR
      000000C0H.4 SFRSYM    DATA     BIT       PADC0
      000000B8H   SFRSYM    DATA     BYTE      IP0
      000000C0H.5 SFRSYM    DATA     BIT       PADC1
      000000C0H   SFRSYM    DATA     BYTE      IP1
      000000C8H   SFRSYM    DATA     BYTE      IP2
      00000098H.2 SFRSYM    DATA     BIT       RB8
      000000D8H   SFRSYM    DATA     BYTE      IP3
      000000A8H   SFRSYM    DATA     BIT       EX0
      00000098H.3 SFRSYM    DATA     BIT       TB8
      000000A8H.2 SFRSYM    DATA     BIT       EX1
      000000D0H   SFRSYM    DATA     BIT       P
      0000008AH   SFRSYM    DATA     BYTE      UT2_CR
      00000089H   SFRSYM    DATA     BYTE      UT2_DR
      00000098H.5 SFRSYM    DATA     BIT       SM2
      000000D8H.6 SFRSYM    DATA     BIT       PDMA0
      000000D8H.7 SFRSYM    DATA     BIT       PDMA1
      000000D0H.3 SFRSYM    DATA     BIT       RS0
      000000D0H.4 SFRSYM    DATA     BIT       RS1
      000000CAH   SFRSYM    DATA     BYTE      MDU_MD
      000000C1H   SFRSYM    DATA     BYTE      MDU_CR
      000000F8H.7 SFRSYM    DATA     BIT       MOE
      000000C0H.6 SFRSYM    DATA     BIT       PCMP0
      000000C0H.7 SFRSYM    DATA     BIT       PCMP1
      00000098H.4 SFRSYM    DATA     BIT       REN
      000000D7H   SFRSYM    DATA     BYTE      CMP_SR
      000000C8H   SFRSYM    DATA     BIT       PRTC0
      000000C8H.1 SFRSYM    DATA     BIT       PRTC1
      000000B8H.6 SFRSYM    DATA     BIT       PDRV0
      000000B8H.7 SFRSYM    DATA     BIT       PDRV1
      000000D1H   SFRSYM    DATA     BYTE      P1_IE
      000000D3H   SFRSYM    DATA     BYTE      P2_IE
      000000D2H   SFRSYM    DATA     BYTE      P1_IF
      000000D4H   SFRSYM    DATA     BYTE      P2_IF
      000000ACH   SFRSYM    DATA     WORD      TIM2__DR
      000000FCH   SFRSYM    DATA     BYTE      P0_OE
      000000A4H   SFRSYM    DATA     WORD      TIM3__DR
      000000FDH   SFRSYM    DATA     BYTE      P1_OE
      00000094H   SFRSYM    DATA     WORD      TIM4__DR
      000000D0H.5 SFRSYM    DATA     BIT       F0
      000000FEH   SFRSYM    DATA     BYTE      P2_OE
      000000D0H.1 SFRSYM    DATA     BIT       F1
      000000FFH   SFRSYM    DATA     BYTE      P3_OE
      00000080H   SFRSYM    DATA     BIT       GP00
      000000E9H   SFRSYM    DATA     BYTE      P4_OE
      00000090H   SFRSYM    DATA     BIT       GP10
      00000080H.1 SFRSYM    DATA     BIT       GP01
      000000A8H.6 SFRSYM    DATA     BIT       RTCIE
      000000A0H   SFRSYM    DATA     BIT       GP20
      00000090H.1 SFRSYM    DATA     BIT       GP11
      00000080H.2 SFRSYM    DATA     BIT       GP02
      000000B0H   SFRSYM    DATA     BIT       GP30
      000000A0H.1 SFRSYM    DATA     BIT       GP21
      00000090H.2 SFRSYM    DATA     BIT       GP12
      00000080H.3 SFRSYM    DATA     BIT       GP03
      000000D8H.2 SFRSYM    DATA     BIT       PI2C_UT10
      000000B8H   SFRSYM    DATA     BIT       PLVW0
      000000A8H.1 SFRSYM    DATA     BIT       TSDIE
LX51 LINKER/LOCATER V4.66.30.0                                                        04/09/2024  13:54:58  PAGE 116


      000000D0H   SFRSYM    DATA     BYTE      PSW
      000000B0H.1 SFRSYM    DATA     BIT       GP31
      000000A0H.2 SFRSYM    DATA     BIT       GP22
      00000090H.3 SFRSYM    DATA     BIT       GP13
      00000080H.4 SFRSYM    DATA     BIT       GP04
      000000D8H.3 SFRSYM    DATA     BIT       PI2C_UT11
      000000B8H.1 SFRSYM    DATA     BIT       PLVW1
      000000A8H.3 SFRSYM    DATA     BIT       SPIIE
      00000088H.5 SFRSYM    DATA     BIT       TSDIF
      000000B0H.2 SFRSYM    DATA     BIT       GP32
      000000A0H.3 SFRSYM    DATA     BIT       GP23
      00000090H.4 SFRSYM    DATA     BIT       GP14
      00000080H.5 SFRSYM    DATA     BIT       GP05
      000000E8H.2 SFRSYM    DATA     BIT       GP42
      000000B0H.3 SFRSYM    DATA     BIT       GP33
      000000A0H.4 SFRSYM    DATA     BIT       GP24
      00000090H.5 SFRSYM    DATA     BIT       GP15
      00000080H.6 SFRSYM    DATA     BIT       GP06
      00000088H   SFRSYM    DATA     BIT       IT00

      01002C77H   BLOCK     CODE     ---       LVL=0
      01002C77H   LINE      CODE     ---       #60
      01002C77H   LINE      CODE     ---       #61
      01002C77H   LINE      CODE     ---       #63
      01002C77H   LINE      CODE     ---       #65
      01002C81H   LINE      CODE     ---       #66
      01002C89H   LINE      CODE     ---       #67
      01002C90H   LINE      CODE     ---       #68
      01002C94H   LINE      CODE     ---       #69
      01002C9AH   LINE      CODE     ---       #70
      01002CA0H   LINE      CODE     ---       #72
      01002CA6H   LINE      CODE     ---       #73
      01002CB0H   LINE      CODE     ---       #74
      01002CB7H   LINE      CODE     ---       #75
      01002CB7H   LINE      CODE     ---       #82
      01002CBAH   LINE      CODE     ---       #83
      01002CBFH   LINE      CODE     ---       #84
      ---         BLOCKEND  ---      ---       LVL=0

      ---         MODULE    ---      ---       ?C_STARTUP
      01000000H   PUBLIC    CODE     ---       ?C_STARTUP
      000000E0H   SYMBOL    DATA     ---       ACC
      000000F0H   SYMBOL    DATA     ---       B
      00000083H   SYMBOL    DATA     ---       DPH
      00000082H   SYMBOL    DATA     ---       DPL
      00000000H   SYMBOL    NUMBER   ---       IBPSTACK
      00000100H   SYMBOL    NUMBER   ---       IBPSTACKTOP
      000000FFH   SYMBOL    NUMBER   ---       IDATALEN
      010024D0H   SYMBOL    CODE     ---       IDATALOOP
      00000000H   SYMBOL    NUMBER   ---       PBPSTACK
      00000100H   SYMBOL    NUMBER   ---       PBPSTACKTOP
      00000000H   SYMBOL    NUMBER   ---       PDATALEN
      00000000H   SYMBOL    NUMBER   ---       PDATASTART
      00000000H   SYMBOL    NUMBER   ---       PPAGE
      00000000H   SYMBOL    NUMBER   ---       PPAGEENABLE
      000000A0H   SYMBOL    DATA     ---       PPAGE_SFR
      00000081H   SYMBOL    DATA     ---       SP
      010024CDH   SYMBOL    CODE     ---       STARTUP1
      00000000H   SYMBOL    NUMBER   ---       XBPSTACK
      00000000H   SYMBOL    NUMBER   ---       XBPSTACKTOP
      000002FFH   SYMBOL    NUMBER   ---       XDATALEN
      010024DBH   SYMBOL    CODE     ---       XDATALOOP
      00000000H   SYMBOL    NUMBER   ---       XDATASTART
      01000000H   LINE      CODE     ---       #132
      010024CDH   LINE      CODE     ---       #139
LX51 LINKER/LOCATER V4.66.30.0                                                        04/09/2024  13:54:58  PAGE 117


      010024CFH   LINE      CODE     ---       #140
      010024D0H   LINE      CODE     ---       #141
      010024D1H   LINE      CODE     ---       #142
      010024D3H   LINE      CODE     ---       #146
      010024D6H   LINE      CODE     ---       #147
      010024D8H   LINE      CODE     ---       #149
      010024DAH   LINE      CODE     ---       #153
      010024DBH   LINE      CODE     ---       #154
      010024DCH   LINE      CODE     ---       #155
      010024DDH   LINE      CODE     ---       #156
      010024DFH   LINE      CODE     ---       #157
      010024E1H   LINE      CODE     ---       #191
      010024E4H   LINE      CODE     ---       #202

      ---         MODULE    ---      ---       ?C?FPADD
      0100006DH   PUBLIC    CODE     ---       ?C?FPADD
      01000069H   PUBLIC    CODE     ---       ?C?FPSUB

      ---         MODULE    ---      ---       ?C?FPMUL
      0100015EH   PUBLIC    CODE     ---       ?C?FPMUL

      ---         MODULE    ---      ---       ?C?FPDIV
      01000267H   PUBLIC    CODE     ---       ?C?FPDIV

      ---         MODULE    ---      ---       ?C?FPCMP
      01000306H   PUBLIC    CODE     ---       ?C?FPCMP
      01000304H   PUBLIC    CODE     ---       ?C?FPCMP3

      ---         MODULE    ---      ---       ?C?FCAST
      01000387H   PUBLIC    CODE     ---       ?C?FCASTC
      01000382H   PUBLIC    CODE     ---       ?C?FCASTI
      0100037DH   PUBLIC    CODE     ---       ?C?FCASTL

      ---         MODULE    ---      ---       ?C?CASTF
      010003BBH   PUBLIC    CODE     ---       ?C?CASTF

      ---         MODULE    ---      ---       ?C?FPGETOPN
      010003F2H   PUBLIC    CODE     ---       ?C?FPGETOPN2
      01000427H   PUBLIC    CODE     ---       ?C?FPNANRESULT
      01000431H   PUBLIC    CODE     ---       ?C?FPOVERFLOW
      01000409H   PUBLIC    CODE     ---       ?C?FPRESULT
      0100041DH   PUBLIC    CODE     ---       ?C?FPRESULT2
      0100042EH   PUBLIC    CODE     ---       ?C?FPUNDERFLOW

      ---         MODULE    ---      ---       ?C_INIT
      01002522H   PUBLIC    CODE     ---       ?C_START

      ---         MODULE    ---      ---       ?C?CLDPTR
      0100043CH   PUBLIC    CODE     ---       ?C?CLDPTR

      ---         MODULE    ---      ---       ?C?CLDOPTR
      01000455H   PUBLIC    CODE     ---       ?C?CLDOPTR

      ---         MODULE    ---      ---       ?C?CILDPTR
      01000482H   PUBLIC    CODE     ---       ?C?CILDPTR

      ---         MODULE    ---      ---       ?C?CSTPTR
      010004A4H   PUBLIC    CODE     ---       ?C?CSTPTR

      ---         MODULE    ---      ---       ?C?IILDX
      010004B6H   PUBLIC    CODE     ---       ?C?IILDX

      ---         MODULE    ---      ---       ?C?ILDPTR
      010004CCH   PUBLIC    CODE     ---       ?C?ILDPTR

LX51 LINKER/LOCATER V4.66.30.0                                                        04/09/2024  13:54:58  PAGE 118


      ---         MODULE    ---      ---       ?C?ILDOPTR
      010004F7H   PUBLIC    CODE     ---       ?C?ILDOPTR

      ---         MODULE    ---      ---       ?C?IILDOPTR
      0100052FH   PUBLIC    CODE     ---       ?C?IILDOPTR

      ---         MODULE    ---      ---       ?C?ISTPTR
      0100057CH   PUBLIC    CODE     ---       ?C?ISTPTR

      ---         MODULE    ---      ---       ?C?ISTOPTR
      0100059BH   PUBLIC    CODE     ---       ?C?ISTOPTR

      ---         MODULE    ---      ---       ?C?LNEG
      010005C8H   PUBLIC    CODE     ---       ?C?LNEG

      ---         MODULE    ---      ---       ?C?ULCMP
      010005D6H   PUBLIC    CODE     ---       ?C?ULCMP

      ---         MODULE    ---      ---       ?C?ULSHR
      010005E7H   PUBLIC    CODE     ---       ?C?ULSHR

      ---         MODULE    ---      ---       ?C?SLSHR
      010005FAH   PUBLIC    CODE     ---       ?C?SLSHR

      ---         MODULE    ---      ---       ?C?LSTXDATA
      0100060EH   PUBLIC    CODE     ---       ?C?LSTXDATA

      ---         MODULE    ---      ---       ?C?LSTKXDATA
      0100061AH   PUBLIC    CODE     ---       ?C?LSTKXDATA

      ---         MODULE    ---      ---       ?C?LIMUL
      0100064BH   PUBLIC    CODE     ---       ?C?LIMUL

      ---         MODULE    ---      ---       ABS
      0100003EH   PUBLIC    CODE     ---       _ABS

      ---         MODULE    ---      ---       STRLEN

      ---         MODULE    ---      ---       ?C?MEMSET
      01000678H   PUBLIC    CODE     ---       ?C?MEMSET

Program Size: data=87.0 xdata=549 const=0 code=12453
LX51 RUN COMPLETE.  0 WARNING(S),  0 ERROR(S)
